 glquake

 Timestamp is 61009772 (Tue Jul 27 16:32:02 2021)

 Preferred load address is 00400000

 Start         Length     Name                   Class
 0001:00000000 00051c2dH .text                   CODE
 0002:00000000 00000c87H .rdata                  DATA
 0002:00000c87 00000000H .edata                  DATA
 0003:00000000 00000004H .CRT$XCA                DATA
 0003:00000004 00000004H .CRT$XCZ                DATA
 0003:00000008 00000004H .CRT$XIA                DATA
 0003:0000000c 00000008H .CRT$XIC                DATA
 0003:00000014 00000004H .CRT$XIZ                DATA
 0003:00000018 00000004H .CRT$XPA                DATA
 0003:0000001c 00000004H .CRT$XPX                DATA
 0003:00000020 00000004H .CRT$XPZ                DATA
 0003:00000024 00000004H .CRT$XTA                DATA
 0003:00000028 00000004H .CRT$XTZ                DATA
 0003:00000030 000122a0H .data                   DATA
 0003:000122d0 008fc2a8H .bss                    DATA
 0004:00000000 0000008cH .idata$2                DATA
 0004:0000008c 00000014H .idata$3                DATA
 0004:000000a0 000002fcH .idata$4                DATA
 0004:0000039c 000002fcH .idata$5                DATA
 0004:00000698 00000bd8H .idata$6                DATA
 0005:00000000 00000220H .rsrc$01                DATA
 0005:00000220 000028e8H .rsrc$02                DATA

  Address         Publics by Value              Rva+Base     Lib:Object

 0001:00000000       _CDAudio_Play              00401000 f   cd_win.obj
 0001:000002cd       _CDAudio_Stop              004012cd f   cd_win.obj
 0001:0000032e       _CDAudio_Pause             0040132e f   cd_win.obj
 0001:0000039e       _CDAudio_Resume            0040139e f   cd_win.obj
 0001:0000042e       _CDAudio_MessageHandler    0040142e f   cd_win.obj
 0001:000004f3       _CDAudio_Update            004014f3 f   cd_win.obj
 0001:0000056c       _CDAudio_Init              0040156c f   cd_win.obj
 0001:00000acc       _CDAudio_Shutdown          00401acc f   cd_win.obj
 0001:00000b10       _Chase_Init                00401b10 f   chase.obj
 0001:00000b49       _Chase_Reset               00401b49 f   chase.obj
 0001:00000b4e       _TraceLine                 00401b4e f   chase.obj
 0001:00000ba9       _Chase_Update              00401ba9 f   chase.obj
 0001:00000d00       _CL_StopPlayback           00401d00 f   cl_demo.obj
 0001:00000d4a       _CL_WriteDemoMessage       00401d4a f   cl_demo.obj
 0001:00000df1       _CL_GetMessage             00401df1 f   cl_demo.obj
 0001:00000fc2       _CL_Stop_f                 00401fc2 f   cl_demo.obj
 0001:0000103a       _CL_Record_f               0040203a f   cl_demo.obj
 0001:000011db       _CL_PlayDemo_f             004021db f   cl_demo.obj
 0001:00001364       _CL_FinishTimeDemo         00402364 f   cl_demo.obj
 0001:000013d2       _CL_TimeDemo_f             004023d2 f   cl_demo.obj
 0001:00001420       _KeyDown                   00402420 f   cl_input.obj
 0001:000014c3       _KeyUp                     004024c3 f   cl_input.obj
 0001:00001582       _IN_KLookDown              00402582 f   cl_input.obj
 0001:00001594       _IN_KLookUp                00402594 f   cl_input.obj
 0001:000015a6       _IN_MLookDown              004025a6 f   cl_input.obj
 0001:000015b8       _IN_MLookUp                004025b8 f   cl_input.obj
 0001:000015ee       _IN_UpDown                 004025ee f   cl_input.obj
 0001:00001600       _IN_UpUp                   00402600 f   cl_input.obj
 0001:00001612       _IN_DownDown               00402612 f   cl_input.obj
 0001:00001624       _IN_DownUp                 00402624 f   cl_input.obj
 0001:00001636       _IN_LeftDown               00402636 f   cl_input.obj
 0001:00001648       _IN_LeftUp                 00402648 f   cl_input.obj
 0001:0000165a       _IN_RightDown              0040265a f   cl_input.obj
 0001:0000166c       _IN_RightUp                0040266c f   cl_input.obj
 0001:0000167e       _IN_ForwardDown            0040267e f   cl_input.obj
 0001:00001690       _IN_ForwardUp              00402690 f   cl_input.obj
 0001:000016a2       _IN_BackDown               004026a2 f   cl_input.obj
 0001:000016b4       _IN_BackUp                 004026b4 f   cl_input.obj
 0001:000016c6       _IN_LookupDown             004026c6 f   cl_input.obj
 0001:000016d8       _IN_LookupUp               004026d8 f   cl_input.obj
 0001:000016ea       _IN_LookdownDown           004026ea f   cl_input.obj
 0001:000016fc       _IN_LookdownUp             004026fc f   cl_input.obj
 0001:0000170e       _IN_MoveleftDown           0040270e f   cl_input.obj
 0001:00001720       _IN_MoveleftUp             00402720 f   cl_input.obj
 0001:00001732       _IN_MoverightDown          00402732 f   cl_input.obj
 0001:00001744       _IN_MoverightUp            00402744 f   cl_input.obj
 0001:00001756       _IN_SpeedDown              00402756 f   cl_input.obj
 0001:00001768       _IN_SpeedUp                00402768 f   cl_input.obj
 0001:0000177a       _IN_StrafeDown             0040277a f   cl_input.obj
 0001:0000178c       _IN_StrafeUp               0040278c f   cl_input.obj
 0001:0000179e       _IN_AttackDown             0040279e f   cl_input.obj
 0001:000017b0       _IN_AttackUp               004027b0 f   cl_input.obj
 0001:000017c2       _IN_UseDown                004027c2 f   cl_input.obj
 0001:000017d4       _IN_UseUp                  004027d4 f   cl_input.obj
 0001:000017e6       _IN_JumpDown               004027e6 f   cl_input.obj
 0001:000017f8       _IN_JumpUp                 004027f8 f   cl_input.obj
 0001:0000180a       _IN_Impulse                0040280a f   cl_input.obj
 0001:00001827       _CL_KeyState               00402827 f   cl_input.obj
 0001:000018f6       _CL_AdjustAngles           004028f6 f   cl_input.obj
 0001:00001ae2       _CL_BaseMove               00402ae2 f   cl_input.obj
 0001:00001c5f       _CL_SendMove               00402c5f f   cl_input.obj
 0001:00001e20       _CL_InitInput              00402e20 f   cl_input.obj
 0001:000020a0       _CL_ClearState             004030a0 f   cl_main.obj
 0001:000021aa       _CL_Disconnect             004031aa f   cl_main.obj
 0001:0000227c       _CL_Disconnect_f           0040327c f   cl_main.obj
 0001:00002299       _CL_EstablishConnection    00403299 f   cl_main.obj
 0001:0000230f       _CL_SignonReply            0040330f f   cl_main.obj
 0001:00002482       _CL_NextDemo               00403482 f   cl_main.obj
 0001:00002537       _CL_PrintEntities_f        00403537 f   cl_main.obj
 0001:00002615       _SetPal                    00403615 f   cl_main.obj
 0001:0000261a       _CL_AllocDlight            0040361a f   cl_main.obj
 0001:000026fe       _CL_DecayLights            004036fe f   cl_main.obj
 0001:0000279b       _CL_LerpPoint              0040379b f   cl_main.obj
 0001:000028e0       _CL_RelinkEntities         004038e0 f   cl_main.obj
 0001:00002fb2       _CL_ReadFromServer         00403fb2 f   cl_main.obj
 0001:00003051       _CL_SendCmd                00404051 f   cl_main.obj
 0001:0000310d       _CL_Init                   0040410d f   cl_main.obj
 0001:000032a0       _CL_EntityNum              004042a0 f   cl_parse.obj
 0001:0000330b       _CL_ParseStartSoundPacket  0040430b f   cl_parse.obj
 0001:000033f4       _CL_KeepaliveMessage       004043f4 f   cl_parse.obj
 0001:00003554       _CL_ParseServerInfo        00404554 f   cl_parse.obj
 0001:00003848       _CL_ParseUpdate            00404848 f   cl_parse.obj
 0001:00003ce9       _CL_ParseBaseline          00404ce9 f   cl_parse.obj
 0001:00003d55       _CL_ParseClientdata        00404d55 f   cl_parse.obj
 0001:0000405c       _CL_NewTranslation         0040505c f   cl_parse.obj
 0001:000041da       _CL_ParseStatic            004051da f   cl_parse.obj
 0001:000042da       _CL_ParseStaticSound       004052da f   cl_parse.obj
 0001:00004347       _CL_ParseServerMessage     00405347 f   cl_parse.obj
 0001:000049b0       _CL_InitTEnts              004059b0 f   cl_tent.obj
 0001:00004a33       _CL_ParseBeam              00405a33 f   cl_tent.obj
 0001:00004bbb       _CL_ParseTEnt              00405bbb f   cl_tent.obj
 0001:0000511e       _CL_NewTempEntity          0040611e f   cl_tent.obj
 0001:000051a8       _CL_UpdateTEnts            004061a8 f   cl_tent.obj
 0001:00005480       _Cmd_Wait_f                00406480 f   cmd.obj
 0001:0000548f       _Cbuf_Init                 0040648f f   cmd.obj
 0001:000054a6       _Cbuf_AddText              004064a6 f   cmd.obj
 0001:000054fb       _Cbuf_InsertText           004064fb f   cmd.obj
 0001:00005581       _Cbuf_Execute              00406581 f   cmd.obj
 0001:000056ea       _Cmd_StuffCmds_f           004066ea f   cmd.obj
 0001:000058ff       _Cmd_Exec_f                004068ff f   cmd.obj
 0001:00005990       _Cmd_Echo_f                00406990 f   cmd.obj
 0001:000059dd       _CopyString                004069dd f   cmd.obj
 0001:00005a13       _Cmd_Alias_f               00406a13 f   cmd.obj
 0001:00005ba9       _Cmd_Init                  00406ba9 f   cmd.obj
 0001:00005c1a       _Cmd_Argc                  00406c1a f   cmd.obj
 0001:00005c24       _Cmd_Argv                  00406c24 f   cmd.obj
 0001:00005c45       _Cmd_Args                  00406c45 f   cmd.obj
 0001:00005c4f       _Cmd_TokenizeString        00406c4f f   cmd.obj
 0001:00005d84       _Cmd_AddCommand            00406d84 f   cmd.obj
 0001:00005e3e       _Cmd_Exists                00406e3e f   cmd.obj
 0001:00005e80       _Cmd_CompleteCommand       00406e80 f   cmd.obj
 0001:00005ee3       _Cmd_ExecuteString         00406ee3 f   cmd.obj
 0001:00005fb2       _Cmd_ForwardToServer       00406fb2 f   cmd.obj
 0001:00006071       _Cmd_CheckParm             00407071 f   cmd.obj
 0001:000060d0       _ClearLink                 004070d0 f   common.obj
 0001:000060e6       _RemoveLink                004070e6 f   common.obj
 0001:00006106       _InsertLinkBefore          00407106 f   common.obj
 0001:00006134       _InsertLinkAfter           00407134 f   common.obj
 0001:00006163       _Q_memset                  00407163 f   common.obj
 0001:000061f0       _Q_memcpy                  004071f0 f   common.obj
 0001:0000626f       _Q_memcmp                  0040726f f   common.obj
 0001:000062a4       _Q_strcpy                  004072a4 f   common.obj
 0001:000062e0       _Q_strncpy                 004072e0 f   common.obj
 0001:00006332       _Q_strlen                  00407332 f   common.obj
 0001:0000635c       _Q_strrchr                 0040735c f   common.obj
 0001:000063ac       _Q_strcat                  004073ac f   common.obj
 0001:000063d5       _Q_strcmp                  004073d5 f   common.obj
 0001:0000641d       _Q_strncmp                 0040741d f   common.obj
 0001:00006479       _Q_strncasecmp             00407479 f   common.obj
 0001:00006519       _Q_strcasecmp              00407519 f   common.obj
 0001:00006533       _Q_atoi                    00407533 f   common.obj
 0001:0000667a       _Q_atof                    0040767a f   common.obj
 0001:00006852       _ShortSwap                 00407852 f   common.obj
 0001:0000688e       _ShortNoSwap               0040788e f   common.obj
 0001:00006897       _LongSwap                  00407897 f   common.obj
 0001:0000690a       _LongNoSwap                0040790a f   common.obj
 0001:00006912       _FloatSwap                 00407912 f   common.obj
 0001:0000693d       _FloatNoSwap               0040793d f   common.obj
 0001:00006945       _MSG_WriteChar             00407945 f   common.obj
 0001:00006966       _MSG_WriteByte             00407966 f   common.obj
 0001:00006987       _MSG_WriteShort            00407987 f   common.obj
 0001:000069ba       _MSG_WriteLong             004079ba f   common.obj
 0001:00006a10       _MSG_WriteFloat            00407a10 f   common.obj
 0001:00006a40       _MSG_WriteString           00407a40 f   common.obj
 0001:00006a80       _MSG_WriteCoord            00407a80 f   common.obj
 0001:00006aa0       _MSG_WriteAngle            00407aa0 f   common.obj
 0001:00006aca       _MSG_BeginReading          00407aca f   common.obj
 0001:00006ae3       _MSG_ReadChar              00407ae3 f   common.obj
 0001:00006b2c       _MSG_ReadByte              00407b2c f   common.obj
 0001:00006b76       _MSG_ReadShort             00407b76 f   common.obj
 0001:00006bd8       _MSG_ReadLong              00407bd8 f   common.obj
 0001:00006c63       _MSG_ReadFloat             00407c63 f   common.obj
 0001:00006cd2       _MSG_ReadString            00407cd2 f   common.obj
 0001:00006d26       _MSG_ReadCoord             00407d26 f   common.obj
 0001:00006d44       _MSG_ReadAngle             00407d44 f   common.obj
 0001:00006d62       _SZ_Alloc                  00407d62 f   common.obj
 0001:00006da1       _SZ_Free                   00407da1 f   common.obj
 0001:00006db0       _SZ_Clear                  00407db0 f   common.obj
 0001:00006dbf       _SZ_GetSpace               00407dbf f   common.obj
 0001:00006e4d       _SZ_Write                  00407e4d f   common.obj
 0001:00006e73       _SZ_Print                  00407e73 f   common.obj
 0001:00006eed       _COM_SkipPath              00407eed f   common.obj
 0001:00006f27       _COM_StripExtension        00407f27 f   common.obj
 0001:00006f65       _COM_FileExtension         00407f65 f   common.obj
 0001:00006ff1       _COM_FileBase              00407ff1 f   common.obj
 0001:000070a5       _COM_DefaultExtension      004080a5 f   common.obj
 0001:000070fe       _COM_Parse                 004080fe f   common.obj
 0001:00007288       _COM_CheckParm             00408288 f   common.obj
 0001:000072e3       _COM_CheckRegistered       004082e3 f   common.obj
 0001:0000740f       _COM_InitArgv              0040840f f   common.obj
 0001:000075de       _COM_Init                  004085de f   common.obj
 0001:000076bb       _va                        004086bb f   common.obj
 0001:000076ea       _memsearch                 004086ea f   common.obj
 0001:00007725       _COM_Path_f                00408725 f   common.obj
 0001:0000779e       _COM_WriteFile             0040879e f   common.obj
 0001:0000782a       _COM_CreatePath            0040882a f   common.obj
 0001:00007875       _COM_CopyFile              00408875 f   common.obj
 0001:00007956       _COM_FindFile              00408956 f   common.obj
 0001:00007d27       _COM_OpenFile              00408d27 f   common.obj
 0001:00007d3e       _COM_FOpenFile             00408d3e f   common.obj
 0001:00007d55       _COM_CloseFile             00408d55 f   common.obj
 0001:00007da9       _COM_LoadFile              00408da9 f   common.obj
 0001:00007ef1       _COM_LoadHunkFile          00408ef1 f   common.obj
 0001:00007f04       _COM_LoadTempFile          00408f04 f   common.obj
 0001:00007f17       _COM_LoadCacheFile         00408f17 f   common.obj
 0001:00007f32       _COM_LoadStackFile         00408f32 f   common.obj
 0001:00007f5f       _COM_LoadPackFile          00408f5f f   common.obj
 0001:00008211       _COM_AddGameDirectory      00409211 f   common.obj
 0001:0000830e       _COM_InitFilesystem        0040930e f   common.obj
 0001:000086c0       _InitConProc               004096c0 f   conproc.obj
 0001:0000878a       _DeinitConProc             0040978a f   conproc.obj
 0001:000087a4       _RequestProc               004097a4 f   conproc.obj
 0001:000088d4       _GetMappedBuffer           004098d4 f   conproc.obj
 0001:000088f4       _ReleaseMappedBuffer       004098f4 f   conproc.obj
 0001:00008903       _GetScreenBufferLines      00409903 f   conproc.obj
 0001:00008933       _SetScreenBufferLines      00409933 f   conproc.obj
 0001:0000894d       _ReadText                  0040994d f   conproc.obj
 0001:000089a0       _WriteText                 004099a0 f   conproc.obj
 0001:00008aae       _CharToCode                00409aae f   conproc.obj
 0001:00008b6e       _SetConsoleCXCY            00409b6e f   conproc.obj
 0001:00008d30       _Con_ToggleConsole_f       00409d30 f   console.obj
 0001:00008d93       _Con_Clear_f               00409d93 f   console.obj
 0001:00008db6       _Con_ClearNotify           00409db6 f   console.obj
 0001:00008de6       _Con_MessageMode_f         00409de6 f   console.obj
 0001:00008dff       _Con_MessageMode2_f        00409dff f   console.obj
 0001:00008e18       _Con_CheckResize           00409e18 f   console.obj
 0001:00008fa4       _Con_Init                  00409fa4 f   console.obj
 0001:000090d8       _Con_Linefeed              0040a0d8 f   console.obj
 0001:00009120       _Con_Print                 0040a120 f   console.obj
 0001:000092d8       _Con_DebugLog              0040a2d8 f   console.obj
 0001:00009348       _Con_Printf                0040a348 f   console.obj
 0001:00009423       _Con_DPrintf               0040a423 f   console.obj
 0001:0000948a       _Con_SafePrintf            0040a48a f   console.obj
 0001:000094f3       _Con_DrawInput             0040a4f3 f   console.obj
 0001:000095fe       _Con_DrawNotify            0040a5fe f   console.obj
 0001:000097c1       _Con_DrawConsole           0040a7c1 f   console.obj
 0001:000098bb       _Con_NotifyBox             0040a8bb f   console.obj
 0001:00009970       _CRC_Init                  0040a970 f   crc.obj
 0001:0000997d       _CRC_ProcessByte           0040a97d f   crc.obj
 0001:000099b5       _CRC_Value                 0040a9b5 f   crc.obj
 0001:000099c0       _Cvar_FindVar              0040a9c0 f   cvar.obj
 0001:00009a00       _Cvar_VariableValue        0040aa00 f   cvar.obj
 0001:00009a34       _Cvar_VariableString       0040aa34 f   cvar.obj
 0001:00009a5e       _Cvar_CompleteVariable     0040aa5e f   cvar.obj
 0001:00009ac0       _Cvar_Set                  0040aac0 f   cvar.obj
 0001:00009b92       _Cvar_SetValue             0040ab92 f   cvar.obj
 0001:00009bc6       _Cvar_RegisterVariable     0040abc6 f   cvar.obj
 0001:00009c85       _Cvar_Command              0040ac85 f   cvar.obj
 0001:00009cf6       _Cvar_WriteVariables       0040acf6 f   cvar.obj
 0001:00009d40       _GL_Bind                   0040ad40 f   gl_draw.obj
 0001:00009d85       _Scrap_AllocBlock          0040ad85 f   gl_draw.obj
 0001:00009ebf       _Scrap_Upload              0040aebf f   gl_draw.obj
 0001:00009f2c       _Draw_PicFromWad           0040af2c f   gl_draw.obj
 0001:0000a0e9       _Draw_CachePic             0040b0e9 f   gl_draw.obj
 0001:0000a240       _Draw_CharToConback        0040b240 f   gl_draw.obj
 0001:0000a2e3       _Draw_TextureMode_f        0040b2e3 f   gl_draw.obj
 0001:0000a44b       _Draw_Init                 0040b44b f   gl_draw.obj
 0001:0000a72c       _Draw_Character            0040b72c f   gl_draw.obj
 0001:0000a868       _Draw_String               0040b868 f   gl_draw.obj
 0001:0000a8a2       _Draw_DebugChar            0040b8a2 f   gl_draw.obj
 0001:0000a8a7       _Draw_AlphaPic             0040b8a7 f   gl_draw.obj
 0001:0000aa11       _Draw_Pic                  0040ba11 f   gl_draw.obj
 0001:0000ab36       _Draw_TransPic             0040bb36 f   gl_draw.obj
 0001:0000ab8e       _Draw_TransPicTranslate    0040bb8e f   gl_draw.obj
 0001:0000adb0       _Draw_ConsoleBackground    0040bdb0 f   gl_draw.obj
 0001:0000ae1b       _Draw_TileClear            0040be1b f   gl_draw.obj
 0001:0000af89       _Draw_Fill                 0040bf89 f   gl_draw.obj
 0001:0000b0b4       _Draw_FadeScreen           0040c0b4 f   gl_draw.obj
 0001:0000b1a2       _Draw_BeginDisc            0040c1a2 f   gl_draw.obj
 0001:0000b1e2       _Draw_EndDisc              0040c1e2 f   gl_draw.obj
 0001:0000b1e7       _GL_Set2D                  0040c1e7 f   gl_draw.obj
 0001:0000b2c7       _GL_FindTexture            0040c2c7 f   gl_draw.obj
 0001:0000b328       _GL_ResampleTexture        0040c328 f   gl_draw.obj
 0001:0000b430       _GL_Resample8BitTexture    0040c430 f   gl_draw.obj
 0001:0000b52a       _GL_MipMap                 0040c52a f   gl_draw.obj
 0001:0000b67d       _GL_MipMap8Bit             0040c67d f   gl_draw.obj
 0001:0000b80e       _GL_Upload32               0040c80e f   gl_draw.obj
 0001:0000bab5       _GL_Upload8_EXT            0040cab5 f   gl_draw.obj
 0001:0000bda4       _GL_Upload8                0040cda4 f   gl_draw.obj
 0001:0000bf22       _GL_LoadTexture            0040cf22 f   gl_draw.obj
 0001:0000c049       _GL_LoadPicTexture         0040d049 f   gl_draw.obj
 0001:0000c073       _GL_SelectTexture          0040d073 f   gl_draw.obj
 0001:0000c0d0       _StripLength               0040d0d0 f   gl_mesh.obj
 0001:0000c308       _FanLength                 0040d308 f   gl_mesh.obj
 0001:0000c503       _BuildTris                 0040d503 f   gl_mesh.obj
 0001:0000c91a       _GL_MakeAliasModelDisplayLists 0040d91a f   gl_mesh.obj
 0001:0000cbc0       _Mod_Init                  0040dbc0 f   gl_model.obj
 0001:0000cbe9       _Mod_Extradata             0040dbe9 f   gl_model.obj
 0001:0000cc40       _Mod_PointInLeaf           0040dc40 f   gl_model.obj
 0001:0000cce8       _Mod_DecompressVis         0040dce8 f   gl_model.obj
 0001:0000cda7       _Mod_LeafPVS               0040dda7 f   gl_model.obj
 0001:0000cdd4       _Mod_ClearAll              0040ddd4 f   gl_model.obj
 0001:0000ce23       _Mod_FindName              0040de23 f   gl_model.obj
 0001:0000cedb       _Mod_TouchModel            0040dedb f   gl_model.obj
 0001:0000cf15       _Mod_LoadModel             0040df15 f   gl_model.obj
 0001:0000d02a       _Mod_ForName               0040e02a f   gl_model.obj
 0001:0000d051       _Mod_LoadTextures          0040e051 f   gl_model.obj
 0001:0000d5fb       _Mod_LoadLighting          0040e5fb f   gl_model.obj
 0001:0000d662       _Mod_LoadVisibility        0040e662 f   gl_model.obj
 0001:0000d6c9       _Mod_LoadEntities          0040e6c9 f   gl_model.obj
 0001:0000d730       _Mod_LoadVertexes          0040e730 f   gl_model.obj
 0001:0000d823       _Mod_LoadSubmodels         0040e823 f   gl_model.obj
 0001:0000d9cf       _Mod_LoadEdges             0040e9cf f   gl_model.obj
 0001:0000daae       _Mod_LoadTexinfo           0040eaae f   gl_model.obj
 0001:0000dccc       _CalcSurfaceExtents        0040eccc f   gl_model.obj
 0001:0000df03       _Mod_LoadFaces             0040ef03 f   gl_model.obj
 0001:0000e19d       _Mod_SetParent             0040f19d f   gl_model.obj
 0001:0000e1db       _Mod_LoadNodes             0040f1db f   gl_model.obj
 0001:0000e3eb       _Mod_LoadLeafs             0040f3eb f   gl_model.obj
 0001:0000e623       _Mod_LoadClipnodes         0040f623 f   gl_model.obj
 0001:0000e80a       _Mod_MakeHull0             0040f80a f   gl_model.obj
 0001:0000e93c       _Mod_LoadMarksurfaces      0040f93c f   gl_model.obj
 0001:0000ea2b       _Mod_LoadSurfedges         0040fa2b f   gl_model.obj
 0001:0000eae2       _Mod_LoadPlanes            0040fae2 f   gl_model.obj
 0001:0000ec38       _RadiusFromBounds          0040fc38 f   gl_model.obj
 0001:0000ecea       _Mod_LoadBrushModel        0040fcea f   gl_model.obj
 0001:0000eff8       _Mod_LoadAliasFrame        0040fff8 f   gl_model.obj
 0001:0000f0ad       _Mod_LoadAliasGroup        004100ad f   gl_model.obj
 0001:0000f1a4       _Mod_FloodFillSkin         004101a4 f   gl_model.obj
 0001:0000f5b9       _Mod_LoadAllSkins          004105b9 f   gl_model.obj
 0001:0000f8d0       _Mod_LoadAliasModel        004108d0 f   gl_model.obj
 0001:0000fe29       _Mod_LoadSpriteFrame       00410e29 f   gl_model.obj
 0001:0000ff49       _Mod_LoadSpriteGroup       00410f49 f   gl_model.obj
 0001:00010069       _Mod_LoadSpriteModel       00411069 f   gl_model.obj
 0001:0001028f       _Mod_Print                 0041128f f   gl_model.obj
 0001:00010300       _R_RemoveEfrags            00411300 f   gl_refrag.obj
 0001:00010393       _R_SplitEntityOnNode       00411393 f   gl_refrag.obj
 0001:00010529       _R_AddEfrags               00411529 f   gl_refrag.obj
 0001:000105ee       _R_StoreEfrags             004115ee f   gl_refrag.obj
 0001:000106b0       _R_AnimateLight            004116b0 f   gl_rlight.obj
 0001:00010747       _AddLightBlend             00411747 f   gl_rlight.obj
 0001:000107cf       _R_RenderDlight            004117cf f   gl_rlight.obj
 0001:00010980       _R_RenderDlights           00411980 f   gl_rlight.obj
 0001:00010a83       _R_MarkLights              00411a83 f   gl_rlight.obj
 0001:00010bd5       _R_PushDlights             00411bd5 f   gl_rlight.obj
 0001:00010c7a       _RecursiveLightPoint       00411c7a f   gl_rlight.obj
 0001:0001104d       _R_LightPoint              0041204d f   gl_rlight.obj
 0001:000110c0       _R_CullBox                 004120c0 f   gl_rmain.obj
 0001:0001110d       _R_RotateForEntity         0041210d f   gl_rmain.obj
 0001:0001117a       _R_GetSpriteFrame          0041217a f   gl_rmain.obj
 0001:00011282       _R_DrawSpriteModel         00412282 f   gl_rmain.obj
 0001:0001147f       _GL_DrawAliasFrame         0041247f f   gl_rmain.obj
 0001:000115ae       _GL_DrawAliasShadow        004125ae f   gl_rmain.obj
 0001:00011709       _R_SetupAliasFrame         00412709 f   gl_rmain.obj
 0001:000117a5       _R_DrawAliasModel          004127a5 f   gl_rmain.obj
 0001:00011e0d       _R_DrawEntitiesOnList      00412e0d f   gl_rmain.obj
 0001:00011ef4       _R_DrawViewModel           00412ef4 f   gl_rmain.obj
 0001:0001212d       _R_PolyBlend               0041312d f   gl_rmain.obj
 0001:0001224f       _SignbitsForPlane          0041324f f   gl_rmain.obj
 0001:000122a5       _R_SetFrustum              004132a5 f   gl_rmain.obj
 0001:000124ea       _R_SetupFrame              004134ea f   gl_rmain.obj
 0001:000125b7       _MYgluPerspective          004135b7 f   gl_rmain.obj
 0001:0001262e       _R_SetupGL                 0041362e f   gl_rmain.obj
 0001:0001290a       _R_RenderScene             0041390a f   gl_rmain.obj
 0001:00012941       _R_Clear                   00413941 f   gl_rmain.obj
 0001:00012a9d       _R_Mirror                  00413a9d f   gl_rmain.obj
 0001:00012db8       _R_RenderView              00413db8 f   gl_rmain.obj
 0001:00012ee0       _R_InitTextures            00413ee0 f   gl_rmisc.obj
 0001:0001302f       _R_InitParticleTexture     0041402f f   gl_rmisc.obj
 0001:000131ad       _R_Envmap_f                004141ad f   gl_rmisc.obj
 0001:000134c9       _R_Init                    004144c9 f   gl_rmisc.obj
 0001:00013677       _R_TranslatePlayerSkin     00414677 f   gl_rmisc.obj
 0001:00013df6       _R_NewMap                  00414df6 f   gl_rmisc.obj
 0001:00013f67       _R_TimeRefresh_f           00414f67 f   gl_rmisc.obj
 0001:0001400a       _D_FlushCaches             0041500a f   gl_rmisc.obj
 0001:00014010       _R_AddDynamicLights        00415010 f   gl_rsurf.obj
 0001:000142e6       _R_BuildLightMap           004152e6 f   gl_rsurf.obj
 0001:000145f1       _R_TextureAnimation        004155f1 f   gl_rsurf.obj
 0001:0001469e       _GL_DisableMultitexture    0041569e f   gl_rsurf.obj
 0001:000146ce       _GL_EnableMultitexture     004156ce f   gl_rsurf.obj
 0001:000146fe       _R_DrawSequentialPoly      004156fe f   gl_rsurf.obj
 0001:00014dc8       _DrawGLWaterPoly           00415dc8 f   gl_rsurf.obj
 0001:00014ef8       _DrawGLWaterPolyLightmap   00415ef8 f   gl_rsurf.obj
 0001:00015028       _DrawGLPoly                00416028 f   gl_rsurf.obj
 0001:0001508f       _R_BlendLightmaps          0041608f f   gl_rsurf.obj
 0001:0001532e       _R_RenderBrushPoly         0041632e f   gl_rsurf.obj
 0001:0001560b       _R_RenderDynamicLightmaps  0041660b f   gl_rsurf.obj
 0001:0001586a       _R_MirrorChain             0041686a f   gl_rsurf.obj
 0001:00015890       _R_DrawWaterSurfaces       00416890 f   gl_rsurf.obj
 0001:00015a74       _DrawTextureChains         00416a74 f   gl_rsurf.obj
 0001:00015bac       _R_DrawBrushModel          00416bac f   gl_rsurf.obj
 0001:00015fa4       _R_RecursiveWorldNode      00416fa4 f   gl_rsurf.obj
 0001:000162ba       _R_DrawWorld               004172ba f   gl_rsurf.obj
 0001:00016365       _R_MarkLeaves              00417365 f   gl_rsurf.obj
 0001:000164ce       _AllocBlock                004174ce f   gl_rsurf.obj
 0001:00016608       _BuildSurfaceDisplayList   00417608 f   gl_rsurf.obj
 0001:00016bb7       _GL_CreateSurfaceLightmap  00417bb7 f   gl_rsurf.obj
 0001:00016c6a       _GL_BuildLightmaps         00417c6a f   gl_rsurf.obj
 0001:00016fe0       _SCR_CenterPrint           00417fe0 f   gl_screen.obj
 0001:0001704a       _SCR_DrawCenterString      0041804a f   gl_screen.obj
 0001:000171ab       _SCR_CheckDrawCenterString 004181ab f   gl_screen.obj
 0001:0001720d       _CalcFov                   0041820d f   gl_screen.obj
 0001:0001729c       _SCR_SizeUp_f              0041829c f   gl_screen.obj
 0001:000172c8       _SCR_SizeDown_f            004182c8 f   gl_screen.obj
 0001:000172f4       _SCR_Init                  004182f4 f   gl_screen.obj
 0001:000173e4       _SCR_DrawRam               004183e4 f   gl_screen.obj
 0001:00017428       _SCR_DrawTurtle            00418428 f   gl_screen.obj
 0001:00017495       _SCR_DrawNet               00418495 f   gl_screen.obj
 0001:000174df       _SCR_DrawPause             004184df f   gl_screen.obj
 0001:00017543       _SCR_DrawLoading           00418543 f   gl_screen.obj
 0001:00017592       _SCR_SetUpToDrawConsole    00418592 f   gl_screen.obj
 0001:00017721       _SCR_DrawConsole           00418721 f   gl_screen.obj
 0001:0001777c       _SCR_ScreenShot_f          0041877c f   gl_screen.obj
 0001:0001796c       _SCR_BeginLoadingPlaque    0041896c f   gl_screen.obj
 0001:000179f2       _SCR_EndLoadingPlaque      004189f2 f   gl_screen.obj
 0001:00017a10       _SCR_DrawNotifyString      00418a10 f   gl_screen.obj
 0001:00017b17       _SCR_ModalMessage          00418b17 f   gl_screen.obj
 0001:00017ba1       _SCR_BringDownConsole      00418ba1 f   gl_screen.obj
 0001:00017bfe       _SCR_TileClear             00418bfe f   gl_screen.obj
 0001:00017cca       _SCR_UpdateScreen          00418cca f   gl_screen.obj
 0001:00018190       _VID_HandlePause           00419190 f   gl_vidnt.obj
 0001:00018195       _VID_ForceLockState        00419195 f   gl_vidnt.obj
 0001:0001819a       _VID_LockBuffer            0041919a f   gl_vidnt.obj
 0001:0001819f       _VID_UnlockBuffer          0041919f f   gl_vidnt.obj
 0001:000181a4       _VID_ForceUnlockedAndReturnState 004191a4 f   gl_vidnt.obj
 0001:000181ab       _D_BeginDirectRect         004191ab f   gl_vidnt.obj
 0001:000181b0       _D_EndDirectRect           004191b0 f   gl_vidnt.obj
 0001:000181b5       _CenterWindow              004191b5 f   gl_vidnt.obj
 0001:00018231       _VID_SetWindowedMode       00419231 f   gl_vidnt.obj
 0001:00018490       _VID_SetFullDIBMode        00419490 f   gl_vidnt.obj
 0001:00018756       _VID_SetMode               00419756 f   gl_vidnt.obj
 0001:00018981       _VID_UpdateWindowStatus    00419981 f   gl_vidnt.obj
 0001:000189ed       _CheckTextureExtensions    004199ed f   gl_vidnt.obj
 0001:00018ad5       _CheckArrayExtensions      00419ad5 f   gl_vidnt.obj
 0001:00018bac       _CheckMultiTextureExtensions 00419bac f   gl_vidnt.obj
 0001:00018c10       _GL_Init                   00419c10 f   gl_vidnt.obj
 0001:00018dcb       _GL_BeginRendering         00419dcb f   gl_vidnt.obj
 0001:00018e04       _GL_EndRendering           00419e04 f   gl_vidnt.obj
 0001:00018ebd       _VID_SetPalette            00419ebd f   gl_vidnt.obj
 0001:00019131       _VID_ShiftPalette          0041a131 f   gl_vidnt.obj
 0001:00019136       _VID_SetDefaultMode        0041a136 f   gl_vidnt.obj
 0001:00019140       _VID_Shutdown              0041a140 f   gl_vidnt.obj
 0001:000191f1       _bSetupPixelFormat         0041a1f1 f   gl_vidnt.obj
 0001:0001925d       _MapKey                    0041a25d f   gl_vidnt.obj
 0001:000192a5       _ClearAllStates            0041a2a5 f   gl_vidnt.obj
 0001:000192e2       _AppActivate               0041a2e2 f   gl_vidnt.obj
 0001:00019421       _MainWndProc@16            0041a421 f   gl_vidnt.obj
 0001:0001973e       _VID_NumModes              0041a73e f   gl_vidnt.obj
 0001:00019748       _VID_GetModePtr            0041a748 f   gl_vidnt.obj
 0001:00019770       _VID_GetModeDescription    0041a770 f   gl_vidnt.obj
 0001:000197db       _VID_GetExtModeDescription 0041a7db f   gl_vidnt.obj
 0001:0001989a       _VID_DescribeCurrentMode_f 0041a89a f   gl_vidnt.obj
 0001:000198bb       _VID_NumModes_f            0041a8bb f   gl_vidnt.obj
 0001:000198f2       _VID_DescribeMode_f        0041a8f2 f   gl_vidnt.obj
 0001:00019947       _VID_DescribeModes_f       0041a947 f   gl_vidnt.obj
 0001:000199c3       _VID_InitDIB               0041a9c3 f   gl_vidnt.obj
 0001:00019b5e       _VID_InitFullDIB           0041ab5e f   gl_vidnt.obj
 0001:0001a0ab       _VID_Is8bit                0041b0ab f   gl_vidnt.obj
 0001:0001a0b5       _VID_Init8bitPalette       0041b0b5 f   gl_vidnt.obj
 0001:0001a207       _VID_Init                  0041b207 f   gl_vidnt.obj
 0001:0001acba       _VID_MenuDraw              0041bcba f   gl_vidnt.obj
 0001:0001aedf       _VID_MenuKey               0041bedf f   gl_vidnt.obj
 0001:0001af10       _BoundPoly                 0041bf10 f   gl_warp.obj
 0001:0001afdf       _SubdividePolygon          0041bfdf f   gl_warp.obj
 0001:0001b616       _GL_SubdivideSurface       0041c616 f   gl_warp.obj
 0001:0001b755       _EmitWaterPolys            0041c755 f   gl_warp.obj
 0001:0001b85b       _EmitSkyPolys              0041c85b f   gl_warp.obj
 0001:0001b989       _EmitBothSkyLayers         0041c989 f   gl_warp.obj
 0001:0001ba39       _R_DrawSkyChain            0041ca39 f   gl_warp.obj
 0001:0001bb1b       _R_InitSky                 0041cb1b f   gl_warp.obj
 0001:0001bdd0       _Host_EndGame              0041cdd0 f   host.obj
 0001:0001be6f       _Host_Error                0041ce6f f   host.obj
 0001:0001bf37       _Host_FindMaxClients       0041cf37 f   host.obj
 0001:0001c09a       _Host_InitLocal            0041d09a f   host.obj
 0001:0001c180       _Host_WriteConfiguration   0041d180 f   host.obj
 0001:0001c1fc       _SV_ClientPrintf           0041d1fc f   host.obj
 0001:0001c262       _SV_BroadcastPrintf        0041d262 f   host.obj
 0001:0001c340       _Host_ClientCommands       0041d340 f   host.obj
 0001:0001c3a6       _SV_DropClient             0041d3a6 f   host.obj
 0001:0001c5e1       _Host_ShutdownServer       0041d5e1 f   host.obj
 0001:0001c7c1       _Host_ClearMemory          0041d7c1 f   host.obj
 0001:0001c826       _Host_FilterTime           0041d826 f   host.obj
 0001:0001c8ff       _Host_GetConsoleCommands   0041d8ff f   host.obj
 0001:0001c92e       _Host_ServerFrame          0041d92e f   host.obj
 0001:0001c978       __Host_Frame               0041d978 f   host.obj
 0001:0001cb43       _Host_Frame                0041db43 f   host.obj
 0001:0001cc4c       _Host_InitVCR              0041dc4c f   host.obj
 0001:0001ceb9       _Host_Init                 0041deb9 f   host.obj
 0001:0001d0cc       _Host_Shutdown             0041e0cc f   host.obj
 0001:0001d130       _Host_Quit_f               0041e130 f   host_cmd.obj
 0001:0001d162       _Host_Status_f             0041e162 f   host_cmd.obj
 0001:0001d323       _Host_God_f                0041e323 f   host_cmd.obj
 0001:0001d3ba       _Host_Notarget_f           0041e3ba f   host_cmd.obj
 0001:0001d458       _Host_Noclip_f             0041e458 f   host_cmd.obj
 0001:0001d4fe       _Host_Fly_f                0041e4fe f   host_cmd.obj
 0001:0001d58d       _Host_Ping_f               0041e58d f   host_cmd.obj
 0001:0001d65d       _Host_Map_f                0041e65d f   host_cmd.obj
 0001:0001d7ac       _Host_Changelevel_f        0041e7ac f   host_cmd.obj
 0001:0001d818       _Host_Restart_f            0041e818 f   host_cmd.obj
 0001:0001d85e       _Host_Reconnect_f          0041e85e f   host_cmd.obj
 0001:0001d872       _Host_Connect_f            0041e872 f   host_cmd.obj
 0001:0001d8c1       _Host_SavegameComment      0041e8c1 f   host_cmd.obj
 0001:0001d983       _Host_Savegame_f           0041e983 f   host_cmd.obj
 0001:0001dca3       _Host_Loadgame_f           0041eca3 f   host_cmd.obj
 0001:0001e18c       _Host_Name_f               0041f18c f   host_cmd.obj
 0001:0001e314       _Host_Version_f            0041f314 f   host_cmd.obj
 0001:0001e33d       _Host_Say                  0041f33d f   host_cmd.obj
 0001:0001e513       _Host_Say_f                0041f513 f   host_cmd.obj
 0001:0001e522       _Host_Say_Team_f           0041f522 f   host_cmd.obj
 0001:0001e531       _Host_Tell_f               0041f531 f   host_cmd.obj
 0001:0001e699       _Host_Color_f              0041f699 f   host_cmd.obj
 0001:0001e81a       _Host_Kill_f               0041f81a f   host_cmd.obj
 0001:0001e88e       _Host_Pause_f              0041f88e f   host_cmd.obj
 0001:0001e942       _Host_PreSpawn_f           0041f942 f   host_cmd.obj
 0001:0001e9cc       _Host_Spawn_f              0041f9cc f   host_cmd.obj
 0001:0001ef0f       _Host_Begin_f              0041ff0f f   host_cmd.obj
 0001:0001ef38       _Host_Kick_f               0041ff38 f   host_cmd.obj
 0001:0001f1b6       _Host_Give_f               004201b6 f   host_cmd.obj
 0001:0001f6b3       _FindViewthing             004206b3 f   host_cmd.obj
 0001:0001f720       _Host_Viewmodel_f          00420720 f   host_cmd.obj
 0001:0001f794       _Host_Viewframe_f          00420794 f   host_cmd.obj
 0001:0001f7fc       _PrintFrameName            004207fc f   host_cmd.obj
 0001:0001f848       _Host_Viewnext_f           00420848 f   host_cmd.obj
 0001:0001f8d8       _Host_Viewprev_f           004208d8 f   host_cmd.obj
 0001:0001f95d       _Host_Startdemos_f         0042095d f   host_cmd.obj
 0001:0001fa3f       _Host_Demos_f              00420a3f f   host_cmd.obj
 0001:0001fa6c       _Host_Stopdemo_f           00420a6c f   host_cmd.obj
 0001:0001fa91       _Host_InitCommands         00420a91 f   host_cmd.obj
 0001:0001fd10       _Force_CenterView_f        00420d10 f   in_win.obj
 0001:0001fd1f       _IN_UpdateClipCursor       00420d1f f   in_win.obj
 0001:0001fd4a       _IN_ShowMouse              00420d4a f   in_win.obj
 0001:0001fd6a       _IN_HideMouse              00420d6a f   in_win.obj
 0001:0001fd8a       _IN_ActivateMouse          00420d8a f   in_win.obj
 0001:0001fe36       _IN_SetQuakeMouseState     00420e36 f   in_win.obj
 0001:0001fe49       _IN_DeactivateMouse        00420e49 f   in_win.obj
 0001:0001fecb       _IN_RestoreOriginalMouseState 00420ecb f   in_win.obj
 0001:0001fef8       _IN_InitDInput             00420ef8 f   in_win.obj
 0001:00020095       _IN_StartupMouse           00421095 f   in_win.obj
 0001:000201b8       _IN_Init                   004211b8 f   in_win.obj
 0001:000202ff       _IN_Shutdown               004212ff f   in_win.obj
 0001:00020356       _IN_MouseEvent             00421356 f   in_win.obj
 0001:0002041b       _IN_MouseMove              0042141b f   in_win.obj
 0001:0002087c       _IN_Move                   0042187c f   in_win.obj
 0001:000208ab       _IN_Accumulate             004218ab f   in_win.obj
 0001:00020917       _IN_ClearStates            00421917 f   in_win.obj
 0001:00020943       _IN_StartupJoystick        00421943 f   in_win.obj
 0001:00020ab9       _RawValuePointer           00421ab9 f   in_win.obj
 0001:00020b17       _Joy_AdvancedUpdate_f      00421b17 f   in_win.obj
 0001:00020ceb       _IN_Commands               00421ceb f   in_win.obj
 0001:00020ee5       _IN_ReadJoystick           00421ee5 f   in_win.obj
 0001:00020f50       _IN_JoyMove                00421f50 f   in_win.obj
 0001:000213f0       _Key_Console               004223f0 f   keys.obj
 0001:000217fb       _Key_Message               004227fb f   keys.obj
 0001:000218f7       _Key_StringToKeynum        004228f7 f   keys.obj
 0001:00021964       _Key_KeynumToString        00422964 f   keys.obj
 0001:000219ce       _Key_SetBinding            004229ce f   keys.obj
 0001:00021a55       _Key_Unbind_f              00422a55 f   keys.obj
 0001:00021abd       _Key_Unbindall_f           00422abd f   keys.obj
 0001:00021b00       _Key_Bind_f                00422b00 f   keys.obj
 0001:00021c2a       _Key_WriteBindings         00422c2a f   keys.obj
 0001:00021c96       _Key_Init                  00422c96 f   keys.obj
 0001:00021f21       _Key_Event                 00422f21 f   keys.obj
 0001:0002228f       _Key_ClearStates           0042328f f   keys.obj
 0001:000222d0       _ProjectPointOnPlane       004232d0 f   mathlib.obj
 0001:0002238c       _PerpendicularVector       0042338c f   mathlib.obj
 0001:00022441       _RotatePointAroundVector   00423441 f   mathlib.obj
 0001:00022660       _anglemod                  00423660 f   mathlib.obj
 0001:0002268a       _BOPS_Error                0042368a f   mathlib.obj
 0001:0002269c       _BoxOnPlaneSide            0042369c f   mathlib.obj
 0001:000229e2       _AngleVectors              004239e2 f   mathlib.obj
 0001:00022b45       _VectorCompare             00423b45 f   mathlib.obj
 0001:00022b8b       _VectorMA                  00423b8b f   mathlib.obj
 0001:00022bcc       __DotProduct               00423bcc f   mathlib.obj
 0001:00022bf7       __VectorSubtract           00423bf7 f   mathlib.obj
 0001:00022c2f       __VectorAdd                00423c2f f   mathlib.obj
 0001:00022c67       __VectorCopy               00423c67 f   mathlib.obj
 0001:00022c8e       _CrossProduct              00423c8e f   mathlib.obj
 0001:00022cee       _Length                    00423cee f   mathlib.obj
 0001:00022d47       _VectorNormalize           00423d47 f   mathlib.obj
 0001:00022dd2       _VectorInverse             00423dd2 f   mathlib.obj
 0001:00022dff       _VectorScale               00423dff f   mathlib.obj
 0001:00022e2f       _Q_log2                    00423e2f f   mathlib.obj
 0001:00022e5a       _R_ConcatRotations         00423e5a f   mathlib.obj
 0001:00022ff6       _R_ConcatTransforms        00423ff6 f   mathlib.obj
 0001:0002322d       _FloorDivMod               0042422d f   mathlib.obj
 0001:0002331f       _GreatestCommonDivisor     0042431f f   mathlib.obj
 0001:0002336c       _Invert24To16              0042436c f   mathlib.obj
 0001:000233a0       _M_DrawCharacter           004243a0 f   menu.obj
 0001:000233c9       _M_Print                   004243c9 f   menu.obj
 0001:00023408       _M_PrintWhite              00424408 f   menu.obj
 0001:00023442       _M_DrawTransPic            00424442 f   menu.obj
 0001:0002346b       _M_DrawPic                 0042446b f   menu.obj
 0001:00023494       _M_BuildTranslationTable   00424494 f   menu.obj
 0001:00023594       _M_DrawTransPicTranslate   00424594 f   menu.obj
 0001:000235c2       _M_DrawTextBox             004245c2 f   menu.obj
 0001:000237e0       _M_ToggleMenu_f            004247e0 f   menu.obj
 0001:00023833       _M_Menu_Main_f             00424833 f   menu.obj
 0001:00023873       _M_Main_Draw               00424873 f   menu.obj
 0001:0002392f       _M_Main_Key                0042492f f   menu.obj
 0001:00023aea       _M_Menu_SinglePlayer_f     00424aea f   menu.obj
 0001:00023b0d       _M_SinglePlayer_Draw       00424b0d f   menu.obj
 0001:00023bc9       _M_SinglePlayer_Key        00424bc9 f   menu.obj
 0001:00023d83       _M_ScanSaves               00424d83 f   menu.obj
 0001:00023ebb       _M_Menu_Load_f             00424ebb f   menu.obj
 0001:00023ee3       _M_Menu_Save_f             00424ee3 f   menu.obj
 0001:00023f2c       _M_Load_Draw               00424f2c f   menu.obj
 0001:00023fce       _M_Save_Draw               00424fce f   menu.obj
 0001:00024070       _M_Load_Key                00425070 f   menu.obj
 0001:000241f0       _M_Save_Key                004251f0 f   menu.obj
 0001:00024349       _M_Menu_MultiPlayer_f      00425349 f   menu.obj
 0001:0002436c       _M_MultiPlayer_Draw        0042536c f   menu.obj
 0001:00024459       _M_MultiPlayer_Key         00425459 f   menu.obj
 0001:000245f5       _M_Menu_Setup_f            004255f5 f   menu.obj
 0001:0002467b       _M_Setup_Draw              0042567b f   menu.obj
 0001:000248ac       _M_Setup_Key               004258ac f   menu.obj
 0001:00024c82       _M_Menu_Net_f              00425c82 f   menu.obj
 0001:00024ce2       _M_Net_Draw                00425ce2 f   menu.obj
 0001:00024f71       _M_Net_Key                 00425f71 f   menu.obj
 0001:0002514c       _M_Menu_Options_f          0042614c f   menu.obj
 0001:0002518b       _M_AdjustSliders           0042618b f   menu.obj
 0001:00025510       _M_DrawSlider              00426510 f   menu.obj
 0001:000255d3       _M_DrawCheckbox            004265d3 f   menu.obj
 0001:0002560a       _M_Options_Draw            0042660a f   menu.obj
 0001:00025905       _M_Options_Key             00426905 f   menu.obj
 0001:00025b3a       _M_Menu_Keys_f             00426b3a f   menu.obj
 0001:00025b5d       _M_FindKeysForCommand      00426b5d f   menu.obj
 0001:00025bf7       _M_UnbindCommand           00426bf7 f   menu.obj
 0001:00025c6b       _M_Keys_Draw               00426c6b f   menu.obj
 0001:00025e37       _M_Keys_Key                00426e37 f   menu.obj
 0001:00026061       _M_Menu_Video_f            00427061 f   menu.obj
 0001:00026084       _M_Video_Draw              00427084 f   menu.obj
 0001:0002608f       _M_Video_Key               0042708f f   menu.obj
 0001:000260a1       _M_Menu_Help_f             004270a1 f   menu.obj
 0001:000260ce       _M_Help_Draw               004270ce f   menu.obj
 0001:000260fc       _M_Help_Key                004270fc f   menu.obj
 0001:00026205       _M_Menu_Quit_f             00427205 f   menu.obj
 0001:0002625d       _M_Quit_Key                0042725d f   menu.obj
 0001:0002633d       _M_Quit_Draw               0042733d f   menu.obj
 0001:000264f8       _M_Menu_SerialConfig_f     004274f8 f   menu.obj
 0001:00026603       _M_SerialConfig_Draw       00427603 f   menu.obj
 0001:00026958       _M_SerialConfig_Key        00427958 f   menu.obj
 0001:00026e34       _M_Menu_ModemConfig_f      00427e34 f   menu.obj
 0001:00026e76       _M_ModemConfig_Draw        00427e76 f   menu.obj
 0001:00027144       _M_ModemConfig_Key         00428144 f   menu.obj
 0001:00027470       _M_Menu_LanConfig_f        00428470 f   menu.obj
 0001:00027514       _M_LanConfig_Draw          00428514 f   menu.obj
 0001:000277e8       _M_LanConfig_Key           004287e8 f   menu.obj
 0001:00027b12       _M_Menu_GameOptions_f      00428b12 f   menu.obj
 0001:00027b5d       _M_GameOptions_Draw        00428b5d f   menu.obj
 0001:00028144       _M_NetStart_Change         00429144 f   menu.obj
 0001:00028503       _M_GameOptions_Key         00429503 f   menu.obj
 0001:000287a8       _M_Menu_Search_f           004297a8 f   menu.obj
 0001:000287ee       _M_Search_Draw             004297ee f   menu.obj
 0001:000288d1       _M_Search_Key              004298d1 f   menu.obj
 0001:000288d6       _M_Menu_ServerList_f       004298d6 f   menu.obj
 0001:0002891e       _M_ServerList_Draw         0042991e f   menu.obj
 0001:00028b8a       _M_ServerList_Key          00429b8a f   menu.obj
 0001:00028d32       _M_Init                    00429d32 f   menu.obj
 0001:00028e0f       _M_Draw                    00429e0f f   menu.obj
 0001:00028fa7       _M_Keydown                 00429fa7 f   menu.obj
 0001:0002912e       _M_ConfigureNetSubsystem   0042a12e f   menu.obj
 0001:00029180       _NET_Ban_f                 0042a180 f   net_dgrm.obj
 0001:000292e2       _Datagram_SendMessage      0042a2e2 f   net_dgrm.obj
 0001:00029410       _SendMessageNext           0042a410 f   net_dgrm.obj
 0001:00029514       _ReSendMessage             0042a514 f   net_dgrm.obj
 0001:00029608       _Datagram_CanSendMessage   0042a608 f   net_dgrm.obj
 0001:00029628       _Datagram_CanSendUnreliableMessage 0042a628 f   net_dgrm.obj
 0001:00029632       _Datagram_SendUnreliableMessage 0042a632 f   net_dgrm.obj
 0001:000296ef       _Datagram_GetMessage       0042a6ef f   net_dgrm.obj
 0001:00029b17       _PrintStats                0042ab17 f   net_dgrm.obj
 0001:00029b68       _NET_Stats_f               0042ab68 f   net_dgrm.obj
 0001:0002a0f4       _Datagram_Init             0042b0f4 f   net_dgrm.obj
 0001:0002a650       _Datagram_Shutdown         0042b650 f   net_dgrm.obj
 0001:0002a6a2       _Datagram_Close            0042b6a2 f   net_dgrm.obj
 0001:0002a6c0       _Datagram_Listen           0042b6c0 f   net_dgrm.obj
 0001:0002a709       _Datagram_CheckNewConnections 0042b709 f   net_dgrm.obj
 0001:0002b193       _Datagram_SearchForHosts   0042c193 f   net_dgrm.obj
 0001:0002b642       _Datagram_Connect          0042c642 f   net_dgrm.obj
 0001:0002bb40       _Loop_Init                 0042cb40 f   net_loop.obj
 0001:0002bb55       _Loop_Shutdown             0042cb55 f   net_loop.obj
 0001:0002bb5a       _Loop_Listen               0042cb5a f   net_loop.obj
 0001:0002bb5f       _Loop_SearchForHosts       0042cb5f f   net_loop.obj
 0001:0002bc01       _Loop_Connect              0042cc01 f   net_loop.obj
 0001:0002bd30       _Loop_CheckNewConnections  0042cd30 f   net_loop.obj
 0001:0002bda3       _Loop_GetMessage           0042cda3 f   net_loop.obj
 0001:0002be9d       _Loop_SendMessage          0042ce9d f   net_loop.obj
 0001:0002bf8f       _Loop_SendUnreliableMessage 0042cf8f f   net_loop.obj
 0001:0002c071       _Loop_CanSendMessage       0042d071 f   net_loop.obj
 0001:0002c089       _Loop_CanSendUnreliableMessage 0042d089 f   net_loop.obj
 0001:0002c093       _Loop_Close                0042d093 f   net_loop.obj
 0001:0002c0f0       _SetNetTime                0042d0f0 f   net_main.obj
 0001:0002c100       _NET_NewQSocket            0042d100 f   net_main.obj
 0001:0002c222       _NET_FreeQSocket           0042d222 f   net_main.obj
 0001:0002c2a5       _NET_Slist_f               0042d2a5 f   net_main.obj
 0001:0002c57e       _NET_Connect               0042d57e f   net_main.obj
 0001:0002c76d       _NET_CheckNewConnections   0042d76d f   net_main.obj
 0001:0002c89f       _NET_Close                 0042d89f f   net_main.obj
 0001:0002c8e0       _NET_GetMessage            0042d8e0 f   net_main.obj
 0001:0002ca93       _NET_SendMessage           0042da93 f   net_main.obj
 0001:0002cb5c       _NET_SendUnreliableMessage 0042db5c f   net_main.obj
 0001:0002cc25       _NET_CanSendMessage        0042dc25 f   net_main.obj
 0001:0002ccbc       _NET_SendToAll             0042dcbc f   net_main.obj
 0001:0002ced5       _NET_Init                  0042ded5 f   net_main.obj
 0001:0002d409       _NET_Shutdown              0042e409 f   net_main.obj
 0001:0002d4c0       _NET_Poll                  0042e4c0 f   net_main.obj
 0001:0002d5b8       _SchedulePollProcedure     0042e5b8 f   net_main.obj
 0001:0002d640       _VCR_Init                  0042e640 f   net_vcr.obj
 0001:0002d6b6       _VCR_ReadNext              0042e6b6 f   net_vcr.obj
 0001:0002d70a       _VCR_Listen                0042e70a f   net_vcr.obj
 0001:0002d70f       _VCR_Shutdown              0042e70f f   net_vcr.obj
 0001:0002d714       _VCR_GetMessage            0042e714 f   net_vcr.obj
 0001:0002d7b3       _VCR_SendMessage           0042e7b3 f   net_vcr.obj
 0001:0002d80e       _VCR_CanSendMessage        0042e80e f   net_vcr.obj
 0001:0002d869       _VCR_Close                 0042e869 f   net_vcr.obj
 0001:0002d86e       _VCR_SearchForHosts        0042e86e f   net_vcr.obj
 0001:0002d873       _VCR_Connect               0042e873 f   net_vcr.obj
 0001:0002d87a       _VCR_CheckNewConnections   0042e87a f   net_vcr.obj
 0001:0002d900       _BlockingHook@0            0042e900 f   net_wins.obj
 0001:0002d95d       _WINS_GetLocalAddress      0042e95d f   net_wins.obj
 0001:0002da48       _WINS_Init                 0042ea48 f   net_wins.obj
 0001:0002ded6       _WINS_Shutdown             0042eed6 f   net_wins.obj
 0001:0002df11       _WINS_Listen               0042ef11 f   net_wins.obj
 0001:0002df7b       _WINS_OpenSocket           0042ef7b f   net_wins.obj
 0001:0002e01c       _WINS_CloseSocket          0042f01c f   net_wins.obj
 0001:0002e040       _WINS_Connect              0042f040 f   net_wins.obj
 0001:0002e047       _WINS_CheckNewConnections  0042f047 f   net_wins.obj
 0001:0002e093       _WINS_Read                 0042f093 f   net_wins.obj
 0001:0002e0eb       _WINS_MakeSocketBroadcastCapable 0042f0eb f   net_wins.obj
 0001:0002e125       _WINS_Broadcast            0042f125 f   net_wins.obj
 0001:0002e193       _WINS_Write                0042f193 f   net_wins.obj
 0001:0002e1d2       _WINS_AddrToString         0042f1d2 f   net_wins.obj
 0001:0002e243       _WINS_StringToAddr         0042f243 f   net_wins.obj
 0001:0002e2b8       _WINS_GetSocketAddr        0042f2b8 f   net_wins.obj
 0001:0002e317       _WINS_GetNameFromAddr      0042f317 f   net_wins.obj
 0001:0002e36c       _WINS_GetAddrFromName      0042f36c f   net_wins.obj
 0001:0002e5b5       _WINS_AddrCompare          0042f5b5 f   net_wins.obj
 0001:0002e601       _WINS_GetSocketPort        0042f601 f   net_wins.obj
 0001:0002e618       _WINS_SetSocketPort        0042f618 f   net_wins.obj
 0001:0002e630       _WIPX_Init                 0042f630 f   net_wipx.obj
 0001:0002e8c4       _WIPX_Shutdown             0042f8c4 f   net_wipx.obj
 0001:0002e8ff       _WIPX_Listen               0042f8ff f   net_wipx.obj
 0001:0002e964       _WIPX_OpenSocket           0042f964 f   net_wipx.obj
 0001:0002ea87       _WIPX_CloseSocket          0042fa87 f   net_wipx.obj
 0001:0002eabc       _WIPX_Connect              0042fabc f   net_wipx.obj
 0001:0002eac3       _WIPX_CheckNewConnections  0042fac3 f   net_wipx.obj
 0001:0002eb18       _WIPX_Read                 0042fb18 f   net_wipx.obj
 0001:0002eba9       _WIPX_Broadcast            0042fba9 f   net_wipx.obj
 0001:0002ebc7       _WIPX_Write                0042fbc7 f   net_wipx.obj
 0001:0002ec5a       _WIPX_AddrToString         0042fc5a f   net_wipx.obj
 0001:0002ed11       _WIPX_StringToAddr         0042fd11 f   net_wipx.obj
 0001:0002efbd       _WIPX_GetSocketAddr        0042ffbd f   net_wipx.obj
 0001:0002f00c       _WIPX_GetNameFromAddr      0043000c f   net_wipx.obj
 0001:0002f02c       _WIPX_GetAddrFromName      0043002c f   net_wipx.obj
 0001:0002f0cd       _WIPX_AddrCompare          004300cd f   net_wipx.obj
 0001:0002f15e       _WIPX_GetSocketPort        0043015e f   net_wipx.obj
 0001:0002f175       _WIPX_SetSocketPort        00430175 f   net_wipx.obj
 0001:0002f190       _PF_VarString              00430190 f   pr_cmds.obj
 0001:0002f1e6       _PF_error                  004301e6 f   pr_cmds.obj
 0001:0002f248       _PF_objerror               00430248 f   pr_cmds.obj
 0001:0002f2b6       _PF_makevectors            004302b6 f   pr_cmds.obj
 0001:0002f2f1       _PF_setorigin              004302f1 f   pr_cmds.obj
 0001:0002f352       _SetMinMaxSize             00430352 f   pr_cmds.obj
 0001:0002f653       _PF_setsize                00430653 f   pr_cmds.obj
 0001:0002f69b       _PF_setmodel               0043069b f   pr_cmds.obj
 0001:0002f790       _PF_bprint                 00430790 f   pr_cmds.obj
 0001:0002f7b6       _PF_sprint                 004307b6 f   pr_cmds.obj
 0001:0002f842       _PF_centerprint            00430842 f   pr_cmds.obj
 0001:0002f8ce       _PF_normalize              004308ce f   pr_cmds.obj
 0001:0002f991       _PF_vlen                   00430991 f   pr_cmds.obj
 0001:0002f9ec       _PF_vectoyaw               004309ec f   pr_cmds.obj
 0001:0002fa8d       _PF_vectoangles            00430a8d f   pr_cmds.obj
 0001:0002fbe2       _PF_random                 00430be2 f   pr_cmds.obj
 0001:0002fc10       _PF_particle               00430c10 f   pr_cmds.obj
 0001:0002fc67       _PF_ambientsound           00430c67 f   pr_cmds.obj
 0001:0002fd90       _PF_sound                  00430d90 f   pr_cmds.obj
 0001:0002fe7e       _PF_break                  00430e7e f   pr_cmds.obj
 0001:0002fe9a       _PF_traceline              00430e9a f   pr_cmds.obj
 0001:0002fff7       _PF_checkpos               00430ff7 f   pr_cmds.obj
 0001:0002fffc       _PF_newcheckclient         00430ffc f   pr_cmds.obj
 0001:00030149       _PF_checkclient            00431149 f   pr_cmds.obj
 0001:000302cd       _PF_stuffcmd               004312cd f   pr_cmds.obj
 0001:0003035c       _PF_localcmd               0043135c f   pr_cmds.obj
 0001:00030381       _PF_cvar                   00431381 f   pr_cmds.obj
 0001:000303ae       _PF_cvar_set               004313ae f   pr_cmds.obj
 0001:000303ea       _PF_findradius             004313ea f   pr_cmds.obj
 0001:00030518       _PF_dprint                 00431518 f   pr_cmds.obj
 0001:00030535       _PF_ftos                   00431535 f   pr_cmds.obj
 0001:000305ab       _PF_fabs                   004315ab f   pr_cmds.obj
 0001:000305d5       _PF_vtos                   004315d5 f   pr_cmds.obj
 0001:0003062c       _PF_Spawn                  0043162c f   pr_cmds.obj
 0001:0003064e       _PF_Remove                 0043164e f   pr_cmds.obj
 0001:00030673       _PF_Find                   00431673 f   pr_cmds.obj
 0001:00030759       _PR_CheckEmptyString       00431759 f   pr_cmds.obj
 0001:00030776       _PF_precache_file          00431776 f   pr_cmds.obj
 0001:0003078c       _PF_precache_sound         0043178c f   pr_cmds.obj
 0001:0003083d       _PF_precache_model         0043183d f   pr_cmds.obj
 0001:00030906       _PF_coredump               00431906 f   pr_cmds.obj
 0001:00030910       _PF_traceon                00431910 f   pr_cmds.obj
 0001:0003091f       _PF_traceoff               0043191f f   pr_cmds.obj
 0001:0003092e       _PF_eprint                 0043192e f   pr_cmds.obj
 0001:00030953       _PF_walkmove               00431953 f   pr_cmds.obj
 0001:00030a3d       _PF_droptofloor            00431a3d f   pr_cmds.obj
 0001:00030b5a       _PF_lightstyle             00431b5a f   pr_cmds.obj
 0001:00030c1a       _PF_rint                   00431c1a f   pr_cmds.obj
 0001:00030c78       _PF_floor                  00431c78 f   pr_cmds.obj
 0001:00030c9c       _PF_ceil                   00431c9c f   pr_cmds.obj
 0001:00030cc0       _PF_checkbottom            00431cc0 f   pr_cmds.obj
 0001:00030cf5       _PF_pointcontents          00431cf5 f   pr_cmds.obj
 0001:00030d25       _PF_nextent                00431d25 f   pr_cmds.obj
 0001:00030da9       _PF_aim                    00431da9 f   pr_cmds.obj
 0001:000311fa       _PF_changeyaw              004321fa f   pr_cmds.obj
 0001:000312fb       _WriteDest                 004322fb f   pr_cmds.obj
 0001:000313b8       _PF_WriteByte              004323b8 f   pr_cmds.obj
 0001:000313d9       _PF_WriteChar              004323d9 f   pr_cmds.obj
 0001:000313fa       _PF_WriteShort             004323fa f   pr_cmds.obj
 0001:0003141b       _PF_WriteLong              0043241b f   pr_cmds.obj
 0001:0003143c       _PF_WriteAngle             0043243c f   pr_cmds.obj
 0001:0003145b       _PF_WriteCoord             0043245b f   pr_cmds.obj
 0001:0003147a       _PF_WriteString            0043247a f   pr_cmds.obj
 0001:0003149c       _PF_WriteEntity            0043249c f   pr_cmds.obj
 0001:000314c7       _PF_makestatic             004324c7 f   pr_cmds.obj
 0001:000315c6       _PF_setspawnparms          004325c6 f   pr_cmds.obj
 0001:0003165e       _PF_changelevel            0043265e f   pr_cmds.obj
 0001:000316a6       _PF_Fixme                  004326a6 f   pr_cmds.obj
 0001:000316c0       _ED_ClearEdict             004326c0 f   pr_edict.obj
 0001:000316eb       _ED_Alloc                  004326eb f   pr_edict.obj
 0001:000317af       _ED_Free                   004327af f   pr_edict.obj
 0001:00031892       _ED_GlobalAtOfs            00432892 f   pr_edict.obj
 0001:000318e2       _ED_FieldAtOfs             004328e2 f   pr_edict.obj
 0001:00031932       _ED_FindField              00432932 f   pr_edict.obj
 0001:00031991       _ED_FindGlobal             00432991 f   pr_edict.obj
 0001:000319f0       _ED_FindFunction           004329f0 f   pr_edict.obj
 0001:00031a51       _GetEdictFieldValue        00432a51 f   pr_edict.obj
 0001:00031b21       _PR_ValueString            00432b21 f   pr_edict.obj
 0001:00031cc2       _PR_UglyValueString        00432cc2 f   pr_edict.obj
 0001:00031e48       _PR_GlobalString           00432e48 f   pr_edict.obj
 0001:00031f19       _PR_GlobalStringNoContents 00432f19 f   pr_edict.obj
 0001:00031fbe       _ED_Print                  00432fbe f   pr_edict.obj
 0001:00032124       _ED_Write                  00433124 f   pr_edict.obj
 0001:00032272       _ED_PrintNum               00433272 f   pr_edict.obj
 0001:0003228c       _ED_PrintEdicts            0043328c f   pr_edict.obj
 0001:000322d2       _ED_PrintEdict_f           004332d2 f   pr_edict.obj
 0001:00032316       _ED_Count                  00433316 f   pr_edict.obj
 0001:00032428       _ED_WriteGlobals           00433428 f   pr_edict.obj
 0001:0003251c       _ED_ParseGlobals           0043351c f   pr_edict.obj
 0001:0003260a       _ED_NewString              0043360a f   pr_edict.obj
 0001:000326c2       _ED_ParseEpair             004336c2 f   pr_edict.obj
 0001:000328f4       _ED_ParseEdict             004338f4 f   pr_edict.obj
 0001:00032b1a       _ED_LoadFromFile           00433b1a f   pr_edict.obj
 0001:00032d37       _PR_LoadProgs              00433d37 f   pr_edict.obj
 0001:00033264       _PR_Init                   00434264 f   pr_edict.obj
 0001:00033340       _EDICT_NUM                 00434340 f   pr_edict.obj
 0001:00033378       _NUM_FOR_EDICT             00434378 f   pr_edict.obj
 0001:000333c0       _PR_PrintStatement         004343c0 f   pr_exec.obj
 0001:0003356f       _PR_StackTrace             0043456f f   pr_exec.obj
 0001:00033607       _PR_Profile_f              00434607 f   pr_exec.obj
 0001:000336bd       _PR_RunError               004346bd f   pr_exec.obj
 0001:0003373f       _PR_EnterFunction          0043473f f   pr_exec.obj
 0001:0003388d       _PR_LeaveFunction          0043488d f   pr_exec.obj
 0001:00033948       _PR_ExecuteProgram         00434948 f   pr_exec.obj
 0001:00034480       _R_InitParticles           00435480 f   r_part.obj
 0001:000344f6       _R_EntityParticles         004354f6 f   r_part.obj
 0001:00034718       _R_ClearParticles          00435718 f   r_part.obj
 0001:0003478d       _R_ReadPointFile_f         0043578d f   r_part.obj
 0001:00034904       _R_ParseParticleEffect     00435904 f   r_part.obj
 0001:000349a6       _R_ParticleExplosion       004359a6 f   r_part.obj
 0001:00034b38       _R_ParticleExplosion2      00435b38 f   r_part.obj
 0001:00034c4e       _R_BlobExplosion           00435c4e f   r_part.obj
 0001:00034e1c       _R_RunParticleEffect       00435e1c f   r_part.obj
 0001:00035063       _R_LavaSplash              00436063 f   r_part.obj
 0001:000351fa       _R_TeleportSplash          004361fa f   r_part.obj
 0001:000353b8       _R_RocketTrail             004363b8 f   r_part.obj
 0001:00035835       _R_DrawParticles           00436835 f   r_part.obj
 0001:00035d80       _Sbar_ShowScores           00436d80 f   sbar.obj
 0001:00035da4       _Sbar_DontShowScores       00436da4 f   sbar.obj
 0001:00035dbd       _Sbar_Changed              00436dbd f   sbar.obj
 0001:00035dcc       _Sbar_Init                 00436dcc f   sbar.obj
 0001:00036630       _Sbar_DrawPic              00437630 f   sbar.obj
 0001:00036689       _Sbar_DrawTransPic         00437689 f   sbar.obj
 0001:000366e2       _Sbar_DrawCharacter        004376e2 f   sbar.obj
 0001:00036740       _Sbar_DrawString           00437740 f   sbar.obj
 0001:00036799       _Sbar_itoa                 00437799 f   sbar.obj
 0001:0003682f       _Sbar_DrawNum              0043782f f   sbar.obj
 0001:000368e0       _Sbar_SortFrags            004378e0 f   sbar.obj
 0001:000369f9       _Sbar_ColorForMap          004379f9 f   sbar.obj
 0001:00036a21       _Sbar_UpdateScoreboard     00437a21 f   sbar.obj
 0001:00036af9       _Sbar_SoloScoreboard       00437af9 f   sbar.obj
 0001:00036c07       _Sbar_DrawScoreboard       00437c07 f   sbar.obj
 0001:00036c1f       _Sbar_DrawInventory        00437c1f f   sbar.obj
 0001:0003739b       _Sbar_DrawFrags            0043839b f   sbar.obj
 0001:0003757c       _Sbar_DrawFace             0043857c f   sbar.obj
 0001:00037854       _Sbar_Draw                 00438854 f   sbar.obj
 0001:00037d41       _Sbar_IntermissionNumber   00438d41 f   sbar.obj
 0001:00037df2       _Sbar_DeathmatchOverlay    00438df2 f   sbar.obj
 0001:00037fcc       _Sbar_MiniDeathmatchOverlay 00438fcc f   sbar.obj
 0001:0003824d       _Sbar_IntermissionOverlay  0043924d f   sbar.obj
 0001:000383eb       _Sbar_FinaleOverlay        004393eb f   sbar.obj
 0001:00038430       _S_AmbientOff              00439430 f   snd_dma.obj
 0001:0003843f       _S_AmbientOn               0043943f f   snd_dma.obj
 0001:0003844e       _S_SoundInfo_f             0043944e f   snd_dma.obj
 0001:0003852c       _S_Startup                 0043952c f   snd_dma.obj
 0001:0003856c       _S_Init                    0043956c f   snd_dma.obj
 0001:000387ea       _S_Shutdown                004397ea f   snd_dma.obj
 0001:00038830       _S_FindName                00439830 f   snd_dma.obj
 0001:00038904       _S_TouchSound              00439904 f   snd_dma.obj
 0001:00038935       _S_PrecacheSound           00439935 f   snd_dma.obj
 0001:0003898e       _SND_PickChannel           0043998e f   snd_dma.obj
 0001:00038a93       _SND_Spatialize            00439a93 f   snd_dma.obj
 0001:00038bd3       _S_StartSound              00439bd3 f   snd_dma.obj
 0001:00038daa       _S_StopSound               00439daa f   snd_dma.obj
 0001:00038e10       _S_StopAllSounds           00439e10 f   snd_dma.obj
 0001:00038e88       _S_StopAllSoundsC          00439e88 f   snd_dma.obj
 0001:00038e97       _S_ClearBuffer             00439e97 f   snd_dma.obj
 0001:00038ff1       _S_StaticSound             00439ff1 f   snd_dma.obj
 0001:000390e4       _S_UpdateAmbientSounds     0043a0e4 f   snd_dma.obj
 0001:00039289       _S_Update                  0043a289 f   snd_dma.obj
 0001:0003950c       _GetSoundtime              0043a50c f   snd_dma.obj
 0001:0003959e       _S_ExtraUpdate             0043a59e f   snd_dma.obj
 0001:000395c2       _S_Update_                 0043a5c2 f   snd_dma.obj
 0001:000396d0       _S_Play                    0043a6d0 f   snd_dma.obj
 0001:000397c0       _S_PlayVol                 0043a7c0 f   snd_dma.obj
 0001:000398c8       _S_SoundList               0043a8c8 f   snd_dma.obj
 0001:000399a3       _S_LocalSound              0043a9a3 f   snd_dma.obj
 0001:00039a16       _S_ClearPrecache           0043aa16 f   snd_dma.obj
 0001:00039a1b       _S_BeginPrecaching         0043aa1b f   snd_dma.obj
 0001:00039a20       _S_EndPrecaching           0043aa20 f   snd_dma.obj
 0001:00039a30       _ResampleSfx               0043aa30 f   snd_mem.obj
 0001:00039bd6       _S_LoadSound               0043abd6 f   snd_mem.obj
 0001:00039d8c       _GetLittleShort            0043ad8c f   snd_mem.obj
 0001:00039dd1       _GetLittleLong             0043add1 f   snd_mem.obj
 0001:00039e40       _FindNextChunk             0043ae40 f   snd_mem.obj
 0001:00039eed       _FindChunk                 0043aeed f   snd_mem.obj
 0001:00039f08       _DumpChunks                0043af08 f   snd_mem.obj
 0001:00039f94       _GetWavinfo                0043af94 f   snd_mem.obj
 0001:0003a210       _Snd_WriteLinearBlastStereo16 0043b210 f   snd_mix.obj
 0001:0003a2fd       _S_TransferStereo16        0043b2fd f   snd_mix.obj
 0001:0003a4a0       _S_TransferPaintBuffer     0043b4a0 f   snd_mix.obj
 0001:0003a746       _S_PaintChannels           0043b746 f   snd_mix.obj
 0001:0003a8e4       _SND_InitScaletable        0043b8e4 f   snd_mix.obj
 0001:0003a940       _SND_PaintChannelFrom8     0043b940 f   snd_mix.obj
 0001:0003aa22       _SND_PaintChannelFrom16    0043ba22 f   snd_mix.obj
 0001:0003aad0       _S_BlockSound              0043bad0 f   snd_win.obj
 0001:0003ab01       _S_UnblockSound            0043bb01 f   snd_win.obj
 0001:0003ab1c       _FreeSound                 0043bb1c f   snd_win.obj
 0001:0003acbb       _SNDDMA_InitDirect         0043bcbb f   snd_win.obj
 0001:0003b374       _SNDDMA_InitWav            0043c374 f   snd_win.obj
 0001:0003b6c6       _SNDDMA_Init               0043c6c6 f   snd_win.obj
 0001:0003b7fa       _SNDDMA_GetDMAPos          0043c7fa f   snd_win.obj
 0001:0003b873       _SNDDMA_Submit             0043c873 f   snd_win.obj
 0001:0003b94e       _SNDDMA_Shutdown           0043c94e f   snd_win.obj
 0001:0003b960       _SV_Init                   0043c960 f   sv_main.obj
 0001:0003ba25       _SV_StartParticle          0043ca25 f   sv_main.obj
 0001:0003bb0a       _SV_StartSound             0043cb0a f   sv_main.obj
 0001:0003bd39       _SV_SendServerinfo         0043cd39 f   sv_main.obj
 0001:0003bf90       _SV_ConnectClient          0043cf90 f   sv_main.obj
 0001:0003c101       _SV_CheckForNewClients     0043d101 f   sv_main.obj
 0001:0003c1af       _SV_ClearDatagram          0043d1af f   sv_main.obj
 0001:0003c1c1       _SV_AddToFatPVS            0043d1c1 f   sv_main.obj
 0001:0003c2c7       _SV_FatPVS                 0043d2c7 f   sv_main.obj
 0001:0003c316       _SV_WriteEntitiesToClient  0043d316 f   sv_main.obj
 0001:0003c7f2       _SV_CleanupEnts            0043d7f2 f   sv_main.obj
 0001:0003c854       _SV_WriteClientdataToMessage 0043d854 f   sv_main.obj
 0001:0003cdfe       _SV_SendClientDatagram     0043ddfe f   sv_main.obj
 0001:0003ceec       _SV_UpdateToReliableMessages 0043deec f   sv_main.obj
 0001:0003d070       _SV_SendNop                0043e070 f   sv_main.obj
 0001:0003d0d2       _SV_SendClientMessages     0043e0d2 f   sv_main.obj
 0001:0003d265       _SV_ModelIndex             0043e265 f   sv_main.obj
 0001:0003d2f5       _SV_CreateBaseline         0043e2f5 f   sv_main.obj
 0001:0003d4f1       _SV_SendReconnect          0043e4f1 f   sv_main.obj
 0001:0003d569       _SV_SaveSpawnparms         0043e569 f   sv_main.obj
 0001:0003d63c       _SV_SpawnServer            0043e63c f   sv_main.obj
 0001:0003dab0       _SV_CheckBottom            0043eab0 f   sv_move.obj
 0001:0003ddb8       _SV_movestep               0043edb8 f   sv_move.obj
 0001:0003e25f       _SV_StepDirection          0043f25f f   sv_move.obj
 0001:0003e375       _SV_FixCheckBottom         0043f375 f   sv_move.obj
 0001:0003e39d       _SV_NewChaseDir            0043f39d f   sv_move.obj
 0001:0003e6e3       _SV_CloseEnough            0043f6e3 f   sv_move.obj
 0001:0003e74e       _SV_MoveToGoal             0043f74e f   sv_move.obj
 0001:0003e820       _SV_CheckAllEnts           0043f820 f   sv_phys.obj
 0001:0003e8d1       _SV_CheckVelocity          0043f8d1 f   sv_phys.obj
 0001:0003e9eb       _SV_RunThink               0043f9eb f   sv_phys.obj
 0001:0003eaa2       _SV_Impact                 0043faa2 f   sv_phys.obj
 0001:0003eb98       _ClipVelocity              0043fb98 f   sv_phys.obj
 0001:0003ec86       _SV_FlyMove                0043fc86 f   sv_phys.obj
 0001:0003f260       _SV_AddGravity             00440260 f   sv_phys.obj
 0001:0003f2ca       _SV_PushEntity             004402ca f   sv_phys.obj
 0001:0003f474       _SV_PushMove               00440474 f   sv_phys.obj
 0001:0003fb1c       _SV_Physics_Pusher         00440b1c f   sv_phys.obj
 0001:0003fc0f       _SV_CheckStuck             00440c0f f   sv_phys.obj
 0001:0003fdd1       _SV_CheckWater             00440dd1 f   sv_phys.obj
 0001:0003ff02       _SV_WallFriction           00440f02 f   sv_phys.obj
 0001:00040008       _SV_TryUnstick             00441008 f   sv_phys.obj
 0001:00040236       _SV_WalkMove               00441236 f   sv_phys.obj
 0001:00040610       _SV_Physics_Client         00441610 f   sv_phys.obj
 0001:00040835       _SV_Physics_None           00441835 f   sv_phys.obj
 0001:00040846       _SV_Physics_Noclip         00441846 f   sv_phys.obj
 0001:000408d4       _SV_CheckWaterTransition   004418d4 f   sv_phys.obj
 0001:000409c4       _SV_Physics_Toss           004419c4 f   sv_phys.obj
 0001:00040c04       _SV_Physics_Step           00441c04 f   sv_phys.obj
 0001:00040cea       _SV_Physics                00441cea f   sv_phys.obj
 0001:00040f40       _SV_SetIdealPitch          00441f40 f   sv_user.obj
 0001:000411c0       _SV_UserFriction           004421c0 f   sv_user.obj
 0001:0004135d       _SV_Accelerate             0044235d f   sv_user.obj
 0001:00041417       _SV_AirAccelerate          00442417 f   sv_user.obj
 0001:000414ef       _DropPunchAngle            004424ef f   sv_user.obj
 0001:00041556       _SV_WaterMove              00442556 f   sv_user.obj
 0001:00041771       _SV_WaterJump              00442771 f   sv_user.obj
 0001:0004180d       _SV_AirMove                0044280d f   sv_user.obj
 0001:000419a0       _SV_ClientThink            004429a0 f   sv_user.obj
 0001:00041b64       _SV_ReadClientMove         00442b64 f   sv_user.obj
 0001:00041cb7       _SV_ReadClientMessage      00442cb7 f   sv_user.obj
 0001:000420ba       _SV_RunClients             004430ba f   sv_user.obj
 0001:00042180       _Sys_PageIn                00443180 f   sys_win.obj
 0001:000421f7       _findhandle                004431f7 f   sys_win.obj
 0001:0004223b       _filelength                0044323b f   sys_win.obj
 0001:0004229c       _Sys_FileOpenRead          0044329c f   sys_win.obj
 0001:00042315       _Sys_FileOpenWrite         00443315 f   sys_win.obj
 0001:00042386       _Sys_FileClose             00443386 f   sys_win.obj
 0001:000423c3       _Sys_FileSeek              004433c3 f   sys_win.obj
 0001:000423f8       _Sys_FileRead              004433f8 f   sys_win.obj
 0001:00042439       _Sys_FileWrite             00443439 f   sys_win.obj
 0001:0004247a       _Sys_FileTime              0044347a f   sys_win.obj
 0001:000424d1       _Sys_mkdir                 004434d1 f   sys_win.obj
 0001:000424e2       _Sys_MakeCodeWriteable     004434e2 f   sys_win.obj
 0001:0004250f       _Sys_Init                  0044350f f   sys_win.obj
 0001:0004263f       _Sys_Error                 0044363f f   sys_win.obj
 0001:000428a1       _Sys_Printf                004438a1 f   sys_win.obj
 0001:0004290e       _Sys_Quit                  0044390e f   sys_win.obj
 0001:0004294d       _Sys_FloatTime             0044394d f   sys_win.obj
 0001:00042a73       _Sys_InitFloatTime         00443a73 f   sys_win.obj
 0001:00042ae0       _Sys_ConsoleInput          00443ae0 f   sys_win.obj
 0001:00042cc5       _Sys_Sleep                 00443cc5 f   sys_win.obj
 0001:00042cd2       _Sys_SendKeyEvents         00443cd2 f   sys_win.obj
 0001:00042d2b       _SleepUntilInput           00443d2b f   sys_win.obj
 0001:00042d48       _WinMain@16                00443d48 f   sys_win.obj
 0001:00043280       _V_CalcRoll                00444280 f   view.obj
 0001:0004333c       _V_CalcBob                 0044433c f   view.obj
 0001:0004344c       _V_StartPitchDrift         0044444c f   view.obj
 0001:000434a0       _V_StopPitchDrift          004444a0 f   view.obj
 0001:000434cf       _V_DriftPitch              004444cf f   view.obj
 0001:00043646       _BuildGammaTable           00444646 f   view.obj
 0001:0004370e       _V_CheckGamma              0044470e f   view.obj
 0001:00043752       _V_ParseDamage             00444752 f   view.obj
 0001:0004393f       _V_cshift_f                0044493f f   view.obj
 0001:000439a4       _V_BonusFlash_f            004449a4 f   view.obj
 0001:000439d1       _V_SetContentsColor        004449d1 f   view.obj
 0001:00043acd       _V_CalcPowerupCshift       00444acd f   view.obj
 0001:00043bc3       _V_CalcBlend               00444bc3 f   view.obj
 0001:00043d3a       _V_UpdatePalette           00444d3a f   view.obj
 0001:00044035       _angledelta                00445035 f   view.obj
 0001:00044065       _CalcGunAngle              00445065 f   view.obj
 0001:000442b1       _V_BoundOffsets            004452b1 f   view.obj
 0001:000443d4       _V_AddIdle                 004453d4 f   view.obj
 0001:00044498       _V_CalcViewRoll            00445498 f   view.obj
 0001:00044544       _V_CalcIntermissionRefdef  00445544 f   view.obj
 0001:000445e1       _V_CalcRefdef              004455e1 f   view.obj
 0001:000449ff       _V_RenderView              004459ff f   view.obj
 0001:00044bbc       _V_Init                    00445bbc f   view.obj
 0001:00044d70       _W_CleanupName             00445d70 f   wad.obj
 0001:00044de4       _W_LoadWadFile             00445de4 f   wad.obj
 0001:00044f2a       _W_GetLumpinfo             00445f2a f   wad.obj
 0001:00044fa4       _W_GetLumpName             00445fa4 f   wad.obj
 0001:00044fc5       _W_GetLumpNum              00445fc5 f   wad.obj
 0001:00045009       _SwapPic                   00446009 f   wad.obj
 0001:00045040       _SV_InitBoxHull            00446040 f   world.obj
 0001:00045118       _SV_HullForBox             00446118 f   world.obj
 0001:00045166       _SV_HullForEntity          00446166 f   world.obj
 0001:00045372       _SV_CreateAreaNode         00446372 f   world.obj
 0001:0004551a       _SV_ClearWorld             0044651a f   world.obj
 0001:0004555f       _SV_UnlinkEdict            0044655f f   world.obj
 0001:00045592       _SV_TouchLinks             00446592 f   world.obj
 0001:0004574b       _SV_FindTouchedLeafs       0044674b f   world.obj
 0001:00045893       _SV_LinkEdict              00446893 f   world.obj
 0001:00045b3b       _SV_HullPointContents      00446b3b f   world.obj
 0001:00045c16       _SV_PointContents          00446c16 f   world.obj
 0001:00045c52       _SV_TruePointContents      00446c52 f   world.obj
 0001:00045c72       _SV_TestEntityPosition     00446c72 f   world.obj
 0001:00045cd4       _SV_RecursiveHullCheck     00446cd4 f   world.obj
 0001:0004617b       _SV_ClipMoveToEntity       0044717b f   world.obj
 0001:00046298       _SV_ClipToLinks            00447298 f   world.obj
 0001:000465a1       _SV_MoveBounds             004475a1 f   world.obj
 0001:0004666b       _SV_Move                   0044766b f   world.obj
 0001:00046790       _Z_ClearZone               00447790 f   zone.obj
 0001:00046811       _Z_Free                    00447811 f   zone.obj
 0001:0004691c       _Z_Malloc                  0044791c f   zone.obj
 0001:00046966       _Z_TagMalloc               00447966 f   zone.obj
 0001:00046a9f       _Z_Print                   00447a9f f   zone.obj
 0001:00046b64       _Z_CheckHeap               00447b64 f   zone.obj
 0001:00046bf1       _Hunk_Check                00447bf1 f   zone.obj
 0001:00046c65       _Hunk_Print                00447c65 f   zone.obj
 0001:00046e69       _Hunk_AllocName            00447e69 f   zone.obj
 0001:00046f2a       _Hunk_Alloc                00447f2a f   zone.obj
 0001:00046f40       _Hunk_LowMark              00447f40 f   zone.obj
 0001:00046f4a       _Hunk_FreeToLowMark        00447f4a f   zone.obj
 0001:00046f97       _Hunk_HighMark             00447f97 f   zone.obj
 0001:00046fc2       _Hunk_FreeToHighMark       00447fc2 f   zone.obj
 0001:00047039       _Hunk_HighAllocName        00448039 f   zone.obj
 0001:00047125       _Hunk_TempAlloc            00448125 f   zone.obj
 0001:00047185       _Cache_Move                00448185 f   zone.obj
 0001:00047217       _Cache_FreeLow             00448217 f   zone.obj
 0001:0004725a       _Cache_FreeHigh            0044825a f   zone.obj
 0001:000472d2       _Cache_UnlinkLRU           004482d2 f   zone.obj
 0001:00047328       _Cache_MakeLRU             00448328 f   zone.obj
 0001:00047377       _Cache_TryAlloc            00448377 f   zone.obj
 0001:00047541       _Cache_Flush               00448541 f   zone.obj
 0001:00047565       _Cache_Print               00448565 f   zone.obj
 0001:000475a5       _Cache_Report              004485a5 f   zone.obj
 0001:000475dd       _Cache_Compact             004485dd f   zone.obj
 0001:000475e2       _Cache_Init                004485e2 f   zone.obj
 0001:00047623       _Cache_Free                00448623 f   zone.obj
 0001:00047692       _Cache_Check               00448692 f   zone.obj
 0001:000476ce       _Cache_Alloc               004486ce f   zone.obj
 0001:00047792       _Memory_Init               00448792 f   zone.obj
 0001:00047846       _inet_addr@4               00448846 f   wsock32:WSOCK32.dll
 0001:0004784c       _inet_ntoa@4               0044884c f   wsock32:WSOCK32.dll
 0001:00047852       _WSACancelBlockingCall@0   00448852 f   wsock32:WSOCK32.dll
 0001:00047858       _ntohl@4                   00448858 f   wsock32:WSOCK32.dll
 0001:0004785e       _WSAUnhookBlockingHook@0   0044885e f   wsock32:WSOCK32.dll
 0001:00047864       _WSASetBlockingHook@4      00448864 f   wsock32:WSOCK32.dll
 0001:0004786a       _htons@4                   0044886a f   wsock32:WSOCK32.dll
 0001:00047870       _bind@12                   00448870 f   wsock32:WSOCK32.dll
 0001:00047876       _ntohs@4                   00448876 f   wsock32:WSOCK32.dll
 0001:0004787c       _htonl@4                   0044887c f   wsock32:WSOCK32.dll
 0001:00047882       __fpmath                   00448882 f   LIBC:fpinit.obj
 0001:00047899       __fpclear                  00448899 f   LIBC:fpinit.obj
 0001:0004789a       __cfltcvt_init             0044889a f   LIBC:fpinit.obj
 0001:000478e0       _memset                    004488e0 f   LIBC:memset.obj
 0001:00047940       __CIatan                   00448940 f   LIBC:atan.obj
 0001:00047954       _atan                      00448954 f   LIBC:atan.obj
 0001:000479df       _fclose                    004489df f   LIBC:fclose.obj
 0001:00047a35       _fflush                    00448a35 f   LIBC:fflush.obj
 0001:00047a70       __flush                    00448a70 f   LIBC:fflush.obj
 0001:00047acc       __flushall                 00448acc f   LIBC:fflush.obj
 0001:00047b42       _fwrite                    00448b42 f   LIBC:fwrite.obj
 0001:00047c4c       _fread                     00448c4c f   LIBC:fread.obj
 0001:00047d34       _fprintf                   00448d34 f   LIBC:fprintf.obj
 0001:00047d66       __fsopen                   00448d66 f   LIBC:fopen.obj
 0001:00047d86       _fopen                     00448d86 f   LIBC:fopen.obj
 0001:00047d99       _sprintf                   00448d99 f   LIBC:sprintf.obj
 0001:00047deb       _atol                      00448deb f   LIBC:atox.obj
 0001:00047e76       _atoi                      00448e76 f   LIBC:atox.obj
 0001:00047e90       _strstr                    00448e90 f   LIBC:strstr.obj
 0001:00047f10       __filbuf                   00448f10 f   LIBC:_filbuf.obj
 0001:00047ff0       _strcpy                    00448ff0 f   LIBC:strcat.obj
 0001:00048000       _strcat                    00449000 f   LIBC:strcat.obj
 0001:000480e0       __ftol                     004490e0 f   LIBC:ftol.obj
 0001:00048110       __chkstk                   00449110 f   LIBC:chkstk.obj
 0001:00048110       __alloca_probe             00449110 f   LIBC:chkstk.obj
 0001:0004813f       _rand                      0044913f f   LIBC:rand.obj
 0001:00048160       _memcpy                    00449160 f   LIBC:memcpy.obj
 0001:000484a0       _strncpy                   004494a0 f   LIBC:strncpy.obj
 0001:000485a0       __CIsqrt                   004495a0 f   LIBC:sqrt.obj
 0001:000485b4       _sqrt                      004495b4 f   LIBC:sqrt.obj
 0001:00048660       _atan2                     00449660 f   LIBC:87ctriga.obj
 0001:0004866a       __CIatan2                  0044966a f   LIBC:87ctriga.obj
 0001:00048680       _strlen                    00449680 f   LIBC:strlen.obj
 0001:00048700       _strcmp                    00449700 f   LIBC:strcmp.obj
 0001:00048784       _vsprintf                  00449784 f   LIBC:vsprintf.obj
 0001:000487f0       _strchr                    004497f0 f   LIBC:strchr.obj
 0001:000487f6       ___from_strstr_to_strchr   004497f6 f   LIBC:strchr.obj
 0001:000488ac       _fseek                     004498ac f   LIBC:fseek.obj
 0001:00048938       __isctype                  00449938 f   LIBC:isctype.obj
 0001:000489ad       _toupper                   004499ad f   LIBC:toupper.obj
 0001:00048a79       _ceil                      00449a79 f   LIBC:ceil.obj
 0001:00048b48       _floor                     00449b48 f   LIBC:floor.obj
 0001:00048c17       _fabs                      00449c17 f   LIBC:fabs.obj
 0001:00048cd0       __CIsin                    00449cd0 f   LIBC:sin.obj
 0001:00048ce4       _sin                       00449ce4 f   LIBC:sin.obj
 0001:00048d80       __CIcos                    00449d80 f   LIBC:cos.obj
 0001:00048d94       _cos                       00449d94 f   LIBC:cos.obj
 0001:00048e30       __CItan                    00449e30 f   LIBC:tan.obj
 0001:00048e44       _tan                       00449e44 f   LIBC:tan.obj
 0001:00048ef0       __CIasin                   00449ef0 f   LIBC:asin.obj
 0001:00048f04       _asin                      00449f04 f   LIBC:asin.obj
 0001:00048fbb       _free                      00449fbb f   LIBC:free.obj
 0001:00048fea       _malloc                    00449fea f   LIBC:malloc.obj
 0001:00048ffc       __nh_malloc                00449ffc f   LIBC:malloc.obj
 0001:00049028       __heap_alloc               0044a028 f   LIBC:malloc.obj
 0001:00049060       _strncmp                   0044a060 f   LIBC:strncmp.obj
 0001:000490a0       __CIpow                    0044a0a0 f   LIBC:pow.obj
 0001:000490b9       _pow                       0044a0b9 f   LIBC:pow.obj
 0001:000492c0       _longjmp                   0044a2c0 f   LIBC:longjmp.obj
 0001:0004933c       __setjmp3                  0044a33c f   LIBC:setjmp3.obj
 0001:000493b7       _printf                    0044a3b7 f   LIBC:printf.obj
 0001:000493e8       _fgetc                     0044a3e8 f   LIBC:fgetc.obj
 0001:00049402       _fscanf                    0044a402 f   LIBC:fscanf.obj
 0001:00049418       _abs                       0044a418 f   LIBC:abs.obj
 0001:00049423       _sscanf                    0044a423 f   LIBC:sscanf.obj
 0001:00049460       _memcmp                    0044a460 f   LIBC:memcmp.obj
 0001:0004950c       _atof                      0044a50c f   LIBC:atof.obj
 0001:00049559       _ftell                     0044a559 f   LIBC:ftell.obj
 0001:000496b1       _strerror                  0044a6b1 f   LIBC:strerror.obj
 0001:000496dd       __cinit                    0044a6dd f   LIBC:crt0dat.obj
 0001:0004970a       _exit                      0044a70a f   LIBC:crt0dat.obj
 0001:0004971b       __exit                     0044a71b f   LIBC:crt0dat.obj
 0001:000497df       __mkdir                    0044a7df f   LIBC:mkdir.obj
 0001:0004980b       _WinMainCRTStartup         0044a80b f   LIBC:wincrt0.obj
 0001:00049901       __amsg_exit                0044a901 f   LIBC:wincrt0.obj
 0001:0004994a       __setdefaultprecision      0044a94a f   LIBC:fp8.obj
 0001:0004995c       __ms_p5_test_fdiv          0044a95c f   LIBC:testfdiv.obj
 0001:0004999a       __ms_p5_mp_test_fdiv       0044a99a f   LIBC:testfdiv.obj
 0001:000499c3       __forcdecpt                0044a9c3 f   LIBC:cvt.obj
 0001:00049a1d       __cropzeros                0044aa1d f   LIBC:cvt.obj
 0001:00049a6b       __positive                 0044aa6b f   LIBC:cvt.obj
 0001:00049a83       __fassign                  0044aa83 f   LIBC:cvt.obj
 0001:00049ac1       __cftoe                    0044aac1 f   LIBC:cvt.obj
 0001:00049bc5       __cftof                    0044abc5 f   LIBC:cvt.obj
 0001:00049ca3       __cftog                    0044aca3 f   LIBC:cvt.obj
 0001:00049d88       __cfltcvt                  0044ad88 f   LIBC:cvt.obj
 0001:00049e00       __trandisp1                0044ae00 f   LIBC:87disp.obj
 0001:00049e67       __trandisp2                0044ae67 f   LIBC:87disp.obj
 0001:00049ef3       __rttospopde               0044aef3 f   LIBC:87disp.obj
 0001:00049ef8       __rttospop                 0044aef8 f   LIBC:87disp.obj
 0001:00049efa       __rtnospop                 0044aefa f   LIBC:87disp.obj
 0001:00049efc       __rttosnpop                0044aefc f   LIBC:87disp.obj
 0001:00049efd       __rtnospopde               0044aefd f   LIBC:87disp.obj
 0001:00049f04       __rtzeropop                0044af04 f   LIBC:87disp.obj
 0001:00049f06       __rtzeronpop               0044af06 f   LIBC:87disp.obj
 0001:00049f0b       __rtonepop                 0044af0b f   LIBC:87disp.obj
 0001:00049f0d       __rtonenpop                0044af0d f   LIBC:87disp.obj
 0001:00049f12       __tosnan1                  0044af12 f   LIBC:87disp.obj
 0001:00049f3d       __nosnan2                  0044af3d f   LIBC:87disp.obj
 0001:00049f3f       __tosnan2                  0044af3f f   LIBC:87disp.obj
 0001:00049f67       __nan2                     0044af67 f   LIBC:87disp.obj
 0001:00049fa6       __rtindfpop                0044afa6 f   LIBC:87disp.obj
 0001:00049fa8       __rtindfnpop               0044afa8 f   LIBC:87disp.obj
 0001:00049fb9       __rttosnpopde              0044afb9 f   LIBC:87disp.obj
 0001:00049fc3       __rtchsifneg               0044afc3 f   LIBC:87disp.obj
 0001:00049fd0       __twoToTOS                 0044afd0 f   LIBC:common.obj
 0001:00049fe5       __load_CW                  0044afe5 f   LIBC:common.obj
 0001:00049ffc       __convertTOStoQNaN         0044affc f   LIBC:common.obj
 0001:0004a015       __fload_withFB             0044b015 f   LIBC:common.obj
 0001:0004a058       __checkTOS_withFB          0044b058 f   LIBC:common.obj
 0001:0004a06e       __fast_exit                0044b06e f   LIBC:common.obj
 0001:0004a07b       __math_exit                0044b07b f   LIBC:common.obj
 0001:0004a0a5       __check_overflow_exit      0044b0a5 f   LIBC:common.obj
 0001:0004a0b9       __check_range_exit         0044b0b9 f   LIBC:common.obj
 0001:0004a160       __startTwoArgErrorHandling 0044b160 f   LIBC:genexcep.obj
 0001:0004a177       __startOneArgErrorHandling 0044b177 f   LIBC:genexcep.obj
 0001:0004a1b3       __close                    0044b1b3 f   LIBC:close.obj
 0001:0004a1b3       _close                     0044b1b3 f   LIBC:close.obj
 0001:0004a266       __freebuf                  0044b266 f   LIBC:_freebuf.obj
 0001:0004a291       __commit                   0044b291 f   LIBC:commit.obj
 0001:0004a2e8       __write                    0044b2e8 f   LIBC:write.obj
 0001:0004a2e8       _write                     0044b2e8 f   LIBC:write.obj
 0001:0004a495       ___initstdio               0044b495 f   LIBC:_file.obj
 0001:0004a53a       ___endstdio                0044b53a f   LIBC:_file.obj
 0001:0004a54e       __flsbuf                   0044b54e f   LIBC:_flsbuf.obj
 0001:0004a663       __read                     0044b663 f   LIBC:read.obj
 0001:0004a859       __stbuf                    0044b859 f   LIBC:_sftbuf.obj
 0001:0004a8e6       __ftbuf                    0044b8e6 f   LIBC:_sftbuf.obj
 0001:0004a923       __output                   0044b923 f   LIBC:output.obj
 0001:0004b12d       __openfile                 0044c12d f   LIBC:_open.obj
 0001:0004b29d       __getstream                0044c29d f   LIBC:stream.obj
 0001:0004b320       __allmul                   0044c320 f   LIBC:llmul.obj
 0001:0004b354       __ioinit                   0044c354 f   LIBC:ioinit.obj
 0001:0004b4ff       __getbuf                   0044c4ff f   LIBC:_getbuf.obj
 0001:0004b56c       __fFATN2                   0044c56c f   LIBC:87triga.obj
 0001:0004b5bc       __rtpiby2                  0044c5bc f   LIBC:87triga.obj
 0001:0004b600       __cintrindisp2             0044c600 f   LIBC:87cdisp.obj
 0001:0004b63e       __cintrindisp1             0044c63e f   LIBC:87cdisp.obj
 0001:0004b674       __ctrandisp2               0044c674 f   LIBC:87cdisp.obj
 0001:0004b7e5       __ctrandisp1               0044c7e5 f   LIBC:87cdisp.obj
 0001:0004b811       __fload                    0044c811 f   LIBC:87cdisp.obj
 0001:0004b84d       __lseek                    0044c84d f   LIBC:lseek.obj
 0001:0004b8e7       ___crtGetStringTypeA       0044c8e7 f   LIBC:a_str.obj
 0001:0004ba30       ___crtLCMapStringA         0044ca30 f   LIBC:a_map.obj
 0001:0004bc7f       __handle_qnan1             0044cc7f f   LIBC:fpexcept.obj
 0001:0004bcd2       __except1                  0044ccd2 f   LIBC:fpexcept.obj
 0001:0004bd6a       __raise_exc                0044cd6a f   LIBC:fpexcept.obj
 0001:0004c01d       __handle_exc               0044d01d f   LIBC:fpexcept.obj
 0001:0004c234       __umatherr                 0044d234 f   LIBC:fpexcept.obj
 0001:0004c2bc       __set_errno                0044d2bc f   LIBC:fpexcept.obj
 0001:0004c307       __errcode                  0044d307 f   LIBC:fpexcept.obj
 0001:0004c334       __frnd                     0044d334 f   LIBC:frnd.obj
 0001:0004c346       __set_exp                  0044d346 f   LIBC:util.obj
 0001:0004c36f       __sptype                   0044d36f f   LIBC:util.obj
 0001:0004c3c9       __decomp                   0044d3c9 f   LIBC:util.obj
 0001:0004c48a       __statfp                   0044d48a f   LIBC:fpctrl.obj
 0001:0004c498       __clrfp                    0044d498 f   LIBC:fpctrl.obj
 0001:0004c4a7       __ctrlfp                   0044d4a7 f   LIBC:fpctrl.obj
 0001:0004c4ca       __set_statfp               0044d4ca f   LIBC:fpctrl.obj
 0001:0004c520       __heap_init                0044d520 f   LIBC:heapinit.obj
 0001:0004c55c       ___sbh_heap_init           0044d55c f   LIBC:sbheap.obj
 0001:0004c59a       ___sbh_find_block          0044d59a f   LIBC:sbheap.obj
 0001:0004c5c5       ___sbh_free_block          0044d5c5 f   LIBC:sbheap.obj
 0001:0004c8f0       ___sbh_alloc_block         0044d8f0 f   LIBC:sbheap.obj
 0001:0004cbf9       ___sbh_alloc_new_region    0044dbf9 f   LIBC:sbheap.obj
 0001:0004ccaa       ___sbh_alloc_new_group     0044dcaa f   LIBC:sbheap.obj
 0001:0004cda5       __callnewh                 0044dda5 f   LIBC:handler.obj
 0001:0004cdd1       __fFEXP                    0044ddd1 f   LIBC:87tran.obj
 0001:0004ce38       __rtinfpopse               0044de38 f   LIBC:87tran.obj
 0001:0004ce3a       __rtinfnpopse              0044de3a f   LIBC:87tran.obj
 0001:0004ce4a       __fFLN                     0044de4a f   LIBC:87tran.obj
 0001:0004ceff       __rtinfpop                 0044deff f   LIBC:87tran.obj
 0001:0004cf01       __rtinfnpop                0044df01 f   LIBC:87tran.obj
 0001:0004cf1e       __ffexpm1                  0044df1e f   LIBC:87tran.obj
 0001:0004cfc7       __powhlp                   0044dfc7 f   LIBC:powhlp.obj
 0001:0004d0f7       __d_inttype                0044e0f7 f   LIBC:powhlp.obj
 0001:0004d15c       __global_unwind2           0044e15c f   LIBC:exsup.obj
 0001:0004d19e       __local_unwind2            0044e19e f   LIBC:exsup.obj
 0001:0004d1f6       __NLG_Return2              0044e1f6 f   LIBC:exsup.obj
 0001:0004d206       __abnormal_termination     0044e206 f   LIBC:exsup.obj
 0001:0004d229       __NLG_Notify1              0044e229 f   LIBC:exsup.obj
 0001:0004d232       __NLG_Notify               0044e232 f   LIBC:exsup.obj
 0001:0004d245       __NLG_Dispatch             0044e245 f   LIBC:exsup.obj
 0001:0004d24a       __rt_probe_read4@4         0044e24a f   LIBC:sehsupp.obj
 0001:0004d2af       __input                    0044e2af f   LIBC:input.obj
 0001:0004dd60       __fltin                    0044ed60 f   LIBC:cfin.obj
 0001:0004ddf1       __dosmaperr                0044edf1 f   LIBC:dosmap.obj
 0001:0004de58       __XcptFilter               0044ee58 f   LIBC:winxfltr.obj
 0001:0004dfdc       __wincmdln                 0044efdc f   LIBC:wincmdln.obj
 0001:0004e034       __setenvp                  0044f034 f   LIBC:stdenvp.obj
 0001:0004e0ed       __setargv                  0044f0ed f   LIBC:stdargv.obj
 0001:0004e33a       ___crtGetEnvironmentStringsA 0044f33a f   LIBC:a_env.obj
 0001:0004e474       __except_handler3          0044f474 f   LIBC:exsup3.obj
 0001:0004e531       __seh_longjmp_unwind@4     0044f531 f   LIBC:exsup3.obj
 0001:0004e54c       __FF_MSGBANNER             0044f54c f   LIBC:crt0msg.obj
 0001:0004e585       __NMSG_WRITE               0044f585 f   LIBC:crt0msg.obj
 0001:0004e6d8       __control87                0044f6d8 f   LIBC:ieee87.obj
 0001:0004e70d       __controlfp                0044f70d f   LIBC:ieee87.obj
 0001:0004e83e       _tolower                   0044f83e f   LIBC:tolower.obj
 0001:0004e909       __ZeroTail                 0044f909 f   LIBC:intrncvt.obj
 0001:0004e952       __IncMan                   0044f952 f   LIBC:intrncvt.obj
 0001:0004e9a8       __RoundMan                 0044f9a8 f   LIBC:intrncvt.obj
 0001:0004ea34       __CopyMan                  0044fa34 f   LIBC:intrncvt.obj
 0001:0004ea4f       __FillZeroMan              0044fa4f f   LIBC:intrncvt.obj
 0001:0004ea5b       __IsZeroMan                0044fa5b f   LIBC:intrncvt.obj
 0001:0004ea76       __ShrMan                   0044fa76 f   LIBC:intrncvt.obj
 0001:0004eb03       __ld12cvt                  0044fb03 f   LIBC:intrncvt.obj
 0001:0004ec6f       __ld12tod                  0044fc6f f   LIBC:intrncvt.obj
 0001:0004ec85       __ld12tof                  0044fc85 f   LIBC:intrncvt.obj
 0001:0004ec9b       __atodbl                   0044fc9b f   LIBC:intrncvt.obj
 0001:0004ecc8       __atoflt                   0044fcc8 f   LIBC:intrncvt.obj
 0001:0004ecf5       __fptostr                  0044fcf5 f   LIBC:_fptostr.obj
 0001:0004ed6c       __fltout                   0044fd6c f   LIBC:cfout.obj
 0001:0004edd0       ___dtold                   0044fdd0 f   LIBC:cfout.obj
 0001:0004ee90       _memmove                   0044fe90 f   LIBC:memmove.obj
 0001:0004f1c5       __fptrap                   004501c5 f   LIBC:crt0fp.obj
 0001:0004f1ce       __87except                 004501ce f   LIBC:87except.obj
 0001:0004f29e       __alloc_osfhnd             0045029e f   LIBC:osfinfo.obj
 0001:0004f333       __set_osfhnd               00450333 f   LIBC:osfinfo.obj
 0001:0004f3aa       __free_osfhnd              004503aa f   LIBC:osfinfo.obj
 0001:0004f424       __get_osfhandle            00450424 f   LIBC:osfinfo.obj
 0001:0004f461       _calloc                    00450461 f   LIBC:calloc.obj
 0001:0004f4de       __fcloseall                004504de f   LIBC:closeall.obj
 0001:0004f536       __isatty                   00450536 f   LIBC:isatty.obj
 0001:0004f55c       _wctomb                    0045055c f   LIBC:wctomb.obj
 0001:0004f5d0       __aulldiv                  004505d0 f   LIBC:ulldiv.obj
 0001:0004f640       __aullrem                  00450640 f   LIBC:ullrem.obj
 0001:0004f6b5       __open                     004506b5 f   LIBC:open.obj
 0001:0004f6b5       _open                      004506b5 f   LIBC:open.obj
 0001:0004f6cc       __sopen                    004506cc f   LIBC:open.obj
 0001:0004f985       __matherr                  00450985 f   LIBC:matherr.obj
 0001:0004f990       _fdiv_main_routine         00450990 f   LIBC:adj_fdiv.obj
 0001:0004faa7       __adj_fdiv_r               00450aa7 f   LIBC:adj_fdiv.obj
 0001:0004ff46       __fdivp_sti_st             00450f46 f   LIBC:adj_fdiv.obj
 0001:0004ff59       __fdivrp_sti_st            00450f59 f   LIBC:adj_fdiv.obj
 0001:0004ff6c       __adj_fdiv_m32             00450f6c f   LIBC:adj_fdiv.obj
 0001:0004ffb8       __adj_fdiv_m64             00450fb8 f   LIBC:adj_fdiv.obj
 0001:00050004       __adj_fdiv_m16i            00451004 f   LIBC:adj_fdiv.obj
 0001:00050038       __adj_fdiv_m32i            00451038 f   LIBC:adj_fdiv.obj
 0001:0005006c       __adj_fdivr_m32            0045106c f   LIBC:adj_fdiv.obj
 0001:000500b8       __adj_fdivr_m64            004510b8 f   LIBC:adj_fdiv.obj
 0001:00050104       __adj_fdivr_m16i           00451104 f   LIBC:adj_fdiv.obj
 0001:00050138       __adj_fdivr_m32i           00451138 f   LIBC:adj_fdiv.obj
 0001:0005016c       __safe_fdiv                0045116c f   LIBC:adj_fdiv.obj
 0001:00050181       __safe_fdivr               00451181 f   LIBC:adj_fdiv.obj
 0001:00050196       __fprem_common             00451196 f   LIBC:adj_fdiv.obj
 0001:0005039c       __adj_fprem                0045139c f   LIBC:adj_fdiv.obj
 0001:0005044e       __fprem1_common            0045144e f   LIBC:adj_fdiv.obj
 0001:00050654       __adj_fprem1               00451654 f   LIBC:adj_fdiv.obj
 0001:00050709       __safe_fprem               00451709 f   LIBC:adj_fdiv.obj
 0001:0005070f       __safe_fprem1              0045170f f   LIBC:adj_fdiv.obj
 0001:00050715       __adj_fpatan               00451715 f   LIBC:adj_fdiv.obj
 0001:00050718       __adj_fptan                00451718 f   LIBC:adj_fdiv.obj
 0001:0005071b       __fpclass                  0045171b f   LIBC:ieeemisc.obj
 0001:000507ad       _mbtowc                    004517ad f   LIBC:mbtowc.obj
 0001:00050875       _isspace                   00451875 f   LIBC:_ctype.obj
 0001:000508a0       __allshl                   004518a0 f   LIBC:llshl.obj
 0001:000508bf       _ungetc                    004518bf f   LIBC:ungetc.obj
 0001:0005092d       ___strgtold12              0045192d f   LIBC:strgtold.obj
 0001:00050dfe       __ismbblead                00451dfe f   LIBC:ismbbyte.obj
 0001:00050e40       __setmbcp                  00451e40 f   LIBC:mbctype.obj
 0001:00051204       ___initmbctable            00452204 f   LIBC:mbctype.obj
 0001:00051220       ___crtMessageBoxA          00452220 f   LIBC:crtmbox.obj
 0001:000512a9       ___addl                    004522a9 f   LIBC:mantold.obj
 0001:000512ca       ___add_12                  004522ca f   LIBC:mantold.obj
 0001:00051328       ___shl_12                  00452328 f   LIBC:mantold.obj
 0001:00051356       ___shr_12                  00452356 f   LIBC:mantold.obj
 0001:00051383       ___mtold12                 00452383 f   LIBC:mantold.obj
 0001:0005144a       _$I10_OUTPUT               0045244a f   LIBC:x10fout.obj
 0001:000516dd       __chsize                   004526dd f   LIBC:chsize.obj
 0001:00051823       ___ld12mul                 00452823 f   LIBC:tenpow.obj
 0001:00051a43       ___multtenpow12            00452a43 f   LIBC:tenpow.obj
 0001:00051abf       __setmode                  00452abf f   LIBC:setmode.obj
 0001:00051b40       _RtlUnwind@16              00452b40 f   kernel32:KERNEL32.dll
 0001:00051b46       _remove                    00452b46 f   LIBC:unlink.obj
 0001:00051b70       _unlink                    00452b70 f   LIBC:unlink.obj
 0001:00051b70       __unlink                   00452b70 f   LIBC:unlink.obj
 0001:00051b80       __strnicmp                 00452b80 f   LIBC:strnicmp.obj
 0001:00051b80       _strnicmp                  00452b80 f   LIBC:strnicmp.obj
 0002:00000000       __real@8@00000000000000000000 00453000     cd_win.obj
 0002:00000008       __real@4@00000000000000000000 00453008     cd_win.obj
 0002:00000010       __real@8@4006b400000000000000 00453010     chase.obj
 0002:00000018       __real@8@4000c90fdaa22168c000 00453018     chase.obj
 0002:00000020       __real@4@3fff8000000000000000 00453020     chase.obj
 0002:00000024       __real@4@c004c800000000000000 00453024     cl_input.obj
 0002:00000028       __real@4@4004c800000000000000 00453028     cl_input.obj
 0002:0000002c       __real@4@c0058c00000000000000 0045302c     cl_input.obj
 0002:00000030       __real@4@4005a000000000000000 00453030     cl_input.obj
 0002:00000038       __real@8@3fff8147ae147ae14800 00453038     cl_main.obj
 0002:00000040       __real@8@bff8a3d70a3d70a3d800 00453040     cl_main.obj
 0002:00000048       __real@8@3ffbccccccccccccd000 00453048     cl_main.obj
 0002:00000050       __real@8@3ff8a3d70a3d70a3d800 00453050     cl_main.obj
 0002:00000058       __real@8@3ff583126e978d4fe000 00453058     cl_main.obj
 0002:00000060       __real@4@40038000000000000000 00453060     cl_main.obj
 0002:00000064       __real@4@c005c800000000000000 00453064     cl_main.obj
 0002:00000068       __real@4@4005c800000000000000 00453068     cl_main.obj
 0002:00000070       __real@8@4005c800000000000000 00453070     cl_main.obj
 0002:00000078       __real@4@c006b400000000000000 00453078     cl_main.obj
 0002:0000007c       __real@4@4007b400000000000000 0045307c     cl_main.obj
 0002:00000080       __real@4@4006b400000000000000 00453080     cl_main.obj
 0002:00000088       __real@8@4006ff00000000000000 00453088     cl_parse.obj
 0002:00000090       __real@8@40058000000000000000 00453090     cl_parse.obj
 0002:00000098       __real@4@4001a000000000000000 00453098     cl_parse.obj
 0002:0000009c       __real@4@400dfffe000000000000 0045309c     cl_parse.obj
 0002:000000a0       __real@8@3ffcccccccccccccd000 004530a0     cl_tent.obj
 0002:000000a8       __real@8@3ffe8000000000000000 004530a8     cl_tent.obj
 0002:000000b0       __real@4@4003f000000000000000 004530b0     cl_tent.obj
 0002:000000b8       __real@8@40058200000000000000 004530b8     common.obj
 0002:000000c0       __real@8@4002a000000000000000 004530c0     common.obj
 0002:000000c8       __real@8@4005c200000000000000 004530c8     common.obj
 0002:000000d0       __real@8@4004c000000000000000 004530d0     common.obj
 0002:000000d8       __real@8@40038000000000000000 004530d8     common.obj
 0002:000000e0       __real@4@40028000000000000000 004530e0     common.obj
 0002:000000e8       __real@8@3ffc8000000000000000 004530e8     common.obj
 0002:000000f0       __real@8@3fffb400000000000000 004530f0     common.obj
 0002:000000f8       __real@8@40078000000000000000 004530f8     gl_draw.obj
 0002:00000100       __real@8@3ffb8000000000000000 00453100     gl_draw.obj
 0002:00000108       __real@8@3fff9999999999999800 00453108     gl_draw.obj
 0002:00000110       __real@8@3ffefd70a3d70a3d7000 00453110     gl_model.obj
 0002:00000118       __real@8@3ffdfae147ae147ae000 00453118     gl_model.obj
 0002:00000120       __real@8@3ffda3d70a3d70a3d800 00453120     gl_model.obj
 0002:00000128       __real@4@40008000000000000000 00453128     gl_model.obj
 0002:00000130       __real@8@3ffbba2e8ba2e8ba3000 00453130     gl_model.obj
 0002:00000138       __real@8@3ff39d495182a9930800 00453138     gl_rlight.obj
 0002:00000140       __real@8@3ffdb333333333333000 00453140     gl_rlight.obj
 0002:00000148       __real@4@400a8000000000000000 00453148     gl_rlight.obj
 0002:00000150       __real@8@3fff8000000000000000 00453150     gl_rmain.obj
 0002:00000158       __real@8@4006c800000000000000 00453158     gl_rmain.obj
 0002:00000160       __real@8@3ffab60b60b60b60b800 00453160     gl_rmain.obj
 0002:00000168       __real@4@4006c000000000000000 00453168     gl_rmain.obj
 0002:0000016c       __real@4@40068000000000000000 0045316c     gl_rmain.obj
 0002:00000170       __real@4@4003c000000000000000 00453170     gl_rmain.obj
 0002:00000178       __real@8@3ffd9999999999999800 00453178     gl_rmain.obj
 0002:00000180       __real@4@4005b400000000000000 00453180     gl_rmain.obj
 0002:00000188       __real@8@4007b400000000000000 00453188     gl_rmain.obj
 0002:00000190       __real@4@c0008000000000000000 00453190     gl_rmain.obj
 0002:00000198       __real@8@4008fa00000000000000 00453198     gl_rmain.obj
 0002:000001a0       __real@4@40078000000000000000 004531a0     gl_rmisc.obj
 0002:000001a4       __real@4@40088000000000000000 004531a4     gl_rmisc.obj
 0002:000001a8       __real@8@40068000000000000000 004531a8     gl_rmisc.obj
 0002:000001b0       __real@8@3ffaccccccccccccd000 004531b0     gl_rsurf.obj
 0002:000001b8       __real@8@40028000000000000000 004531b8     gl_rsurf.obj
 0002:000001c0       __real@4@4006b300000000000000 004531c0     gl_screen.obj
 0002:000001c4       __real@4@4002a000000000000000 004531c4     gl_screen.obj
 0002:000001c8       __real@8@4004f000000000000000 004531c8     gl_screen.obj
 0002:000001d0       __real@8@4005c000000000000000 004531d0     gl_screen.obj
 0002:000001d8       __real@4@4005dc00000000000000 004531d8     gl_screen.obj
 0002:000001dc       __real@4@4006aa00000000000000 004531dc     gl_screen.obj
 0002:000001e0       __real@4@4005f000000000000000 004531e0     gl_screen.obj
 0002:000001e4       __real@4@4006ff00000000000000 004531e4     gl_vidnt.obj
 0002:000001e8       __real@8@3ff98000000000000000 004531e8     gl_warp.obj
 0002:000001f0       __real@8@4004a2f9836e4e441800 004531f0     gl_warp.obj
 0002:000001f8       __real@8@3ff88000000000000000 004531f8     gl_warp.obj
 0002:00000200       __real@4@4007bd00000000000000 00453200     gl_warp.obj
 0002:00000204       __real@4@4000c000000000000000 00453204     gl_warp.obj
 0002:00000208       __real@8@4000c000000000000000 00453208     host.obj
 0002:00000210       __real@8@3ff8e38e38e38e38e000 00453210     host.obj
 0002:00000218       __real@8@40138000000000000000 00453218     host.obj
 0002:00000220       __real@4@40138000000000000000 00453220     host.obj
 0002:00000224       __real@4@4008fa00000000000000 00453224     host_cmd.obj
 0002:00000228       __real@4@40058000000000000000 00453228     host_cmd.obj
 0002:00000230       __real@8@c0058c00000000000000 00453230     in_win.obj
 0002:00000238       __real@8@4005a000000000000000 00453238     in_win.obj
 0002:00000240       __real@8@400cdac0000000000000 00453240     in_win.obj
 0002:00000248       __real@8@40079600000000000000 00453248     in_win.obj
 0002:00000250       __real@8@4008c800000000000000 00453250     in_win.obj
 0002:00000258       __real@8@400e8000000000000000 00453258     in_win.obj
 0002:00000260       __real@8@3ff7b400000000000000 00453260     mathlib.obj
 0002:00000268       __real@8@4006b60b60b60b60b800 00453268     mathlib.obj
 0002:00000270       __real@4@bfff8000000000000000 00453270     mathlib.obj
 0002:00000278       __real@8@3ff98efa351294e9c800 00453278     mathlib.obj
 0002:00000280       __real@8@40278000000000000000 00453280     mathlib.obj
 0002:00000288       __real@8@40018000000000000000 00453288     menu.obj
 0002:00000290       __real@4@4006c800000000000000 00453290     menu.obj
 0002:00000294       __real@4@4002b000000000000000 00453294     menu.obj
 0002:00000298       __real@4@40059000000000000000 00453298     menu.obj
 0002:000002a0       __real@8@4001a000000000000000 004532a0     menu.obj
 0002:000002a8       __real@4@4004f000000000000000 004532a8     menu.obj
 0002:000002b0       __real@8@40008000000000000000 004532b0     net_dgrm.obj
 0002:000002b8       __real@8@4000a000000000000000 004532b8     net_dgrm.obj
 0002:000002c0       __real@8@3fffc000000000000000 004532c0     net_main.obj
 0002:000002c8       __real@4@40018000000000000000 004532c8     pr_cmds.obj
 0002:000002cc       __real@4@4003a000000000000000 004532cc     pr_cmds.obj
 0002:000002d0       __real@4@4002f000000000000000 004532d0     r_part.obj
 0002:000002d8       __real@8@3ff9a3d70a3d70a3d800 004532d8     r_part.obj
 0002:000002e0       __real@4@4001c000000000000000 004532e0     r_part.obj
 0002:000002e8       __real@8@3ff783126e978d4fe000 004532e8     r_part.obj
 0002:000002f0       __real@4@4001e000000000000000 004532f0     sbar.obj
 0002:000002f4       __real@4@c0028000000000000000 004532f4     sv_main.obj
 0002:000002f8       __real@8@bffbccccccccccccd000 004532f8     sv_main.obj
 0002:00000300       __real@4@4003b000000000000000 00453300     sv_main.obj
 0002:00000304       __real@4@40039000000000000000 00453304     sv_move.obj
 0002:00000308       __real@4@40049000000000000000 00453308     sv_move.obj
 0002:0000030c       __real@4@4004a000000000000000 0045330c     sv_move.obj
 0002:00000310       __real@4@40079d80000000000000 00453310     sv_move.obj
 0002:00000314       __real@4@4004b400000000000000 00453314     sv_move.obj
 0002:00000318       __real@4@c002a000000000000000 00453318     sv_move.obj
 0002:00000320       __real@8@3ffeb333333333333000 00453320     sv_phys.obj
 0002:00000328       __real@4@40029000000000000000 00453328     sv_phys.obj
 0002:00000330       __real@8@3ffa8000000000000000 00453330     sv_phys.obj
 0002:00000338       __real@8@c0039000000000000000 00453338     sv_phys.obj
 0002:00000340       __real@4@4006a000000000000000 00453340     sv_user.obj
 0002:00000344       __real@4@4002c000000000000000 00453344     sv_user.obj
 0002:00000348       __real@4@40048800000000000000 00453348     sv_user.obj
 0002:00000350       __real@8@4013f424000000000000 00453350     sys_win.obj
 0002:00000358       __real@4@c001e000000000000000 00453358     view.obj
 0002:00000360       __real@8@4006ff80000000000000 00453360     view.obj
 0002:00000368       __real@8@40069600000000000000 00453368     view.obj
 0002:00000370       __real@8@4003a000000000000000 00453370     view.obj
 0002:00000378       __real@8@3ffdccccccccccccd000 00453378     view.obj
 0002:00000380       __real@4@4002e000000000000000 00453380     view.obj
 0002:00000384       __real@4@40048000000000000000 00453384     world.obj
 0002:00000388       _GUID_ZAxis                00453388     dxguid:dxguid_guid69.obj
 0002:00000398       _GUID_YAxis                00453398     dxguid:dxguid_guid68.obj
 0002:000003a8       _GUID_XAxis                004533a8     dxguid:dxguid_guid67.obj
 0002:000003b8       _GUID_SysMouse             004533b8     dxguid:dxguid_guid76.obj
 0002:000003d8       __real@8@4015800bf60000000000 004533d8     LIBC:testfdiv.obj
 0002:000003e0       __real@8@4014bffffc0000000000 004533e0     LIBC:testfdiv.obj
 0002:000003e8       ??_C@_0BK@JEGK@IsProcessorFeaturePresent?$AA@ 004533e8     LIBC:testfdiv.obj
 0002:00000404       ??_C@_08OBID@KERNEL32?$AA@ 00453404     LIBC:testfdiv.obj
 0002:00000410       ??_C@_05OFLO@e?$CL000?$AA@ 00453410     LIBC:cvt.obj
 0002:00000428       __DEFAULT_CW_in_mem        00453428     LIBC:common.obj
 0002:0000042a       __pi_by_2_to_61            0045342a     LIBC:common.obj
 0002:00000464       ___lookuptable             00453464     LIBC:output.obj
 0002:000004c0       ??_C@_1O@POHA@?$AA?$CI?$AAn?$AAu?$AAl?$AAl?$AA?$CJ?$AA?$AA@ 004534c0     LIBC:output.obj
 0002:000004d0       ??_C@_06ONKE@?$CInull?$CJ?$AA@ 004534d0     LIBC:output.obj
 0002:00000510       ??_C@_01A@?$AA?$AA@        00453510     LIBC:a_str.obj
 0002:00000514       ??_C@_13A@?$AA?$AA?$AA?$AA@ 00453514     LIBC:a_str.obj
 0002:00000540       ??_C@_03GAFO@_yn?$AA@      00453540     LIBC:fpexcept.obj
 0002:00000544       ??_C@_03GNLD@_y1?$AA@      00453544     LIBC:fpexcept.obj
 0002:00000548       ??_C@_03MHCE@_y0?$AA@      00453548     LIBC:fpexcept.obj
 0002:0000054c       ??_C@_05PAK@frexp?$AA@     0045354c     LIBC:fpexcept.obj
 0002:00000554       ??_C@_04JKCH@fmod?$AA@     00453554     LIBC:fpexcept.obj
 0002:0000055c       ??_C@_06GGHF@_hypot?$AA@   0045355c     LIBC:fpexcept.obj
 0002:00000564       ??_C@_05JNMC@_cabs?$AA@    00453564     LIBC:fpexcept.obj
 0002:0000056c       ??_C@_05MEKH@ldexp?$AA@    0045356c     LIBC:fpexcept.obj
 0002:00000574       ??_C@_04KAOJ@modf?$AA@     00453574     LIBC:fpexcept.obj
 0002:0000057c       ??_C@_04EHAJ@fabs?$AA@     0045357c     LIBC:fpexcept.obj
 0002:00000584       ??_C@_05MFBN@floor?$AA@    00453584     LIBC:fpexcept.obj
 0002:0000058c       ??_C@_04JJMP@ceil?$AA@     0045358c     LIBC:fpexcept.obj
 0002:00000594       ??_C@_03JLPI@tan?$AA@      00453594     LIBC:fpexcept.obj
 0002:00000598       ??_C@_03DLFL@cos?$AA@      00453598     LIBC:fpexcept.obj
 0002:0000059c       ??_C@_03JAMN@sin?$AA@      0045359c     LIBC:fpexcept.obj
 0002:000005a0       ??_C@_04LMBE@sqrt?$AA@     004535a0     LIBC:fpexcept.obj
 0002:000005a8       ??_C@_05BFPO@atan2?$AA@    004535a8     LIBC:fpexcept.obj
 0002:000005b0       ??_C@_04EAGN@atan?$AA@     004535b0     LIBC:fpexcept.obj
 0002:000005b8       ??_C@_04OAMO@acos?$AA@     004535b8     LIBC:fpexcept.obj
 0002:000005c0       ??_C@_04ELFI@asin?$AA@     004535c0     LIBC:fpexcept.obj
 0002:000005c8       ??_C@_04LFAD@tanh?$AA@     004535c8     LIBC:fpexcept.obj
 0002:000005d0       ??_C@_04PFKD@cosh?$AA@     004535d0     LIBC:fpexcept.obj
 0002:000005d8       ??_C@_04NPAI@sinh?$AA@     004535d8     LIBC:fpexcept.obj
 0002:000005e0       ??_C@_05IJHH@log10?$AA@    004535e0     LIBC:fpexcept.obj
 0002:000005e8       ??_C@_03BGKD@log?$AA@      004535e8     LIBC:fpexcept.obj
 0002:000005ec       ??_C@_03EGFG@pow?$AA@      004535ec     LIBC:fpexcept.obj
 0002:000005f0       ??_C@_03CDGJ@exp?$AA@      004535f0     LIBC:fpexcept.obj
 0002:00000604       ??_C@_0BG@JPLP@Illegal?5byte?5sequence?$AA@ 00453604     LIBC:syserr.obj
 0002:0000061c       ??_C@_0BE@FLBN@Directory?5not?5empty?$AA@ 0045361c     LIBC:syserr.obj
 0002:00000630       ??_C@_0BJ@KAFL@Function?5not?5implemented?$AA@ 00453630     LIBC:syserr.obj
 0002:0000064c       ??_C@_0BD@CEML@No?5locks?5available?$AA@ 0045364c     LIBC:syserr.obj
 0002:00000660       ??_C@_0BC@GADJ@Filename?5too?5long?$AA@ 00453660     LIBC:syserr.obj
 0002:00000674       ??_C@_0BK@FNFN@Resource?5deadlock?5avoided?$AA@ 00453674     LIBC:syserr.obj
 0002:00000690       ??_C@_0BB@EALI@Result?5too?5large?$AA@ 00453690     LIBC:syserr.obj
 0002:000006a4       ??_C@_0N@FIAN@Domain?5error?$AA@ 004536a4     LIBC:syserr.obj
 0002:000006b4       ??_C@_0M@CLKF@Broken?5pipe?$AA@ 004536b4     LIBC:syserr.obj
 0002:000006c0       ??_C@_0P@OFDM@Too?5many?5links?$AA@ 004536c0     LIBC:syserr.obj
 0002:000006d0       ??_C@_0BG@OHDM@Read?9only?5file?5system?$AA@ 004536d0     LIBC:syserr.obj
 0002:000006e8       ??_C@_0N@NGPA@Invalid?5seek?$AA@ 004536e8     LIBC:syserr.obj
 0002:000006f8       ??_C@_0BI@DMFE@No?5space?5left?5on?5device?$AA@ 004536f8     LIBC:syserr.obj
 0002:00000710       ??_C@_0P@OPNK@File?5too?5large?$AA@ 00453710     LIBC:syserr.obj
 0002:00000720       ??_C@_0CE@BADJ@Inappropriate?5I?1O?5control?5operat@ 00453720     LIBC:syserr.obj
 0002:00000744       ??_C@_0BE@COOK@Too?5many?5open?5files?$AA@ 00453744     LIBC:syserr.obj
 0002:00000758       ??_C@_0BO@ELHF@Too?5many?5open?5files?5in?5system?$AA@ 00453758     LIBC:syserr.obj
 0002:00000778       ??_C@_0BB@IHAB@Invalid?5argument?$AA@ 00453778     LIBC:syserr.obj
 0002:0000078c       ??_C@_0P@NDNC@Is?5a?5directory?$AA@ 0045378c     LIBC:syserr.obj
 0002:0000079c       ??_C@_0BA@JMMO@Not?5a?5directory?$AA@ 0045379c     LIBC:syserr.obj
 0002:000007ac       ??_C@_0P@GFAI@No?5such?5device?$AA@ 004537ac     LIBC:syserr.obj
 0002:000007bc       ??_C@_0O@KHHM@Improper?5link?$AA@ 004537bc     LIBC:syserr.obj
 0002:000007cc       ??_C@_0M@EPHJ@File?5exists?$AA@ 004537cc     LIBC:syserr.obj
 0002:000007d8       ??_C@_0BA@LPOH@Resource?5device?$AA@ 004537d8     LIBC:syserr.obj
 0002:000007e8       ??_C@_0O@NOFB@Unknown?5error?$AA@ 004537e8     LIBC:syserr.obj
 0002:000007f8       ??_C@_0M@MLJM@Bad?5address?$AA@ 004537f8     LIBC:syserr.obj
 0002:00000804       ??_C@_0BC@DJON@Permission?5denied?$AA@ 00453804     LIBC:syserr.obj
 0002:00000818       ??_C@_0BB@KDDC@Not?5enough?5space?$AA@ 00453818     LIBC:syserr.obj
 0002:0000082c       ??_C@_0CB@BBBH@Resource?5temporarily?5unavailable@ 0045382c     LIBC:syserr.obj
 0002:00000850       ??_C@_0BD@ODIH@No?5child?5processes?$AA@ 00453850     LIBC:syserr.obj
 0002:00000864       ??_C@_0BE@CDDH@Bad?5file?5descriptor?$AA@ 00453864     LIBC:syserr.obj
 0002:00000878       ??_C@_0BC@BICL@Exec?5format?5error?$AA@ 00453878     LIBC:syserr.obj
 0002:0000088c       ??_C@_0BC@IGMC@Arg?5list?5too?5long?$AA@ 0045388c     LIBC:syserr.obj
 0002:000008a0       ??_C@_0BK@HLB@No?5such?5device?5or?5address?$AA@ 004538a0     LIBC:syserr.obj
 0002:000008bc       ??_C@_0BD@MPKK@Input?1output?5error?$AA@ 004538bc     LIBC:syserr.obj
 0002:000008d0       ??_C@_0BK@ODCM@Interrupted?5function?5call?$AA@ 004538d0     LIBC:syserr.obj
 0002:000008ec       ??_C@_0BA@BPKN@No?5such?5process?$AA@ 004538ec     LIBC:syserr.obj
 0002:000008fc       ??_C@_0BK@IEMO@No?5such?5file?5or?5directory?$AA@ 004538fc     LIBC:syserr.obj
 0002:00000918       ??_C@_0BI@IIAE@Operation?5not?5permitted?$AA@ 00453918     LIBC:syserr.obj
 0002:00000930       ??_C@_08KKBH@No?5error?$AA@ 00453930     LIBC:syserr.obj
 0002:0000093c       ??_C@_0P@GGKG@runtime?5error?5?$AA@ 0045393c     LIBC:crt0msg.obj
 0002:0000094c       ??_C@_02PIMC@?$AN?6?$AA@   0045394c     LIBC:crt0msg.obj
 0002:00000950       ??_C@_0O@DELO@TLOSS?5error?$AN?6?$AA@ 00453950     LIBC:crt0msg.obj
 0002:00000960       ??_C@_0N@OMLL@SING?5error?$AN?6?$AA@ 00453960     LIBC:crt0msg.obj
 0002:00000970       ??_C@_0P@OJAK@DOMAIN?5error?$AN?6?$AA@ 00453970     LIBC:crt0msg.obj
 0002:00000980       ??_C@_0CF@EANP@R6028?$AN?6?9?5unable?5to?5initialize?5he@ 00453980     LIBC:crt0msg.obj
 0002:000009a8       ??_C@_0DF@ECGN@R6027?$AN?6?9?5not?5enough?5space?5for?5lo@ 004539a8     LIBC:crt0msg.obj
 0002:000009e0       ??_C@_0DF@FKAC@R6026?$AN?6?9?5not?5enough?5space?5for?5st@ 004539e0     LIBC:crt0msg.obj
 0002:00000a18       ??_C@_0CG@DPMN@R6025?$AN?6?9?5pure?5virtual?5function?5c@ 00453a18     LIBC:crt0msg.obj
 0002:00000a40       ??_C@_0DF@CKIP@R6024?$AN?6?9?5not?5enough?5space?5for?5_o@ 00453a40     LIBC:crt0msg.obj
 0002:00000a78       ??_C@_0CJ@GGOE@R6019?$AN?6?9?5unable?5to?5open?5console?5@ 00453a78     LIBC:crt0msg.obj
 0002:00000aa4       ??_C@_0CB@LBOB@R6018?$AN?6?9?5unexpected?5heap?5error?$AN?6@ 00453aa4     LIBC:crt0msg.obj
 0002:00000ac8       ??_C@_0CN@FPEG@R6017?$AN?6?9?5unexpected?5multithread?5@ 00453ac8     LIBC:crt0msg.obj
 0002:00000af8       ??_C@_0CM@OBIC@R6016?$AN?6?9?5not?5enough?5space?5for?5th@ 00453af8     LIBC:crt0msg.obj
 0002:00000b24       ??_C@_0CB@HPAL@?$AN?6abnormal?5program?5termination?$AN?6@ 00453b24     LIBC:crt0msg.obj
 0002:00000b48       ??_C@_0CM@JOOB@R6009?$AN?6?9?5not?5enough?5space?5for?5en@ 00453b48     LIBC:crt0msg.obj
 0002:00000b74       ??_C@_0CK@OIBL@R6008?$AN?6?9?5not?5enough?5space?5for?5ar@ 00453b74     LIBC:crt0msg.obj
 0002:00000ba0       ??_C@_0CF@LKPB@R6002?$AN?6?9?5floating?5point?5not?5load@ 00453ba0     LIBC:crt0msg.obj
 0002:00000bc8       ??_C@_0CF@JPDF@Microsoft?5Visual?5C?$CL?$CL?5Runtime?5Lib@ 00453bc8     LIBC:crt0msg.obj
 0002:00000bf0       ??_C@_02JJJH@?6?6?$AA@     00453bf0     LIBC:crt0msg.obj
 0002:00000bf4       ??_C@_0BK@DEOK@Runtime?5Error?$CB?6?6Program?3?5?$AA@ 00453bf4     LIBC:crt0msg.obj
 0002:00000c10       ??_C@_03NAME@?4?4?4?$AA@   00453c10     LIBC:crt0msg.obj
 0002:00000c14       ??_C@_0BH@NNCD@?$DMprogram?5name?5unknown?$DO?$AA@ 00453c14     LIBC:crt0msg.obj
 0002:00000c2c       ??_C@_0BD@NJFP@GetLastActivePopup?$AA@ 00453c2c     LIBC:crtmbox.obj
 0002:00000c40       ??_C@_0BA@GILI@GetActiveWindow?$AA@ 00453c40     LIBC:crtmbox.obj
 0002:00000c50       ??_C@_0M@PKCK@MessageBoxA?$AA@ 00453c50     LIBC:crtmbox.obj
 0002:00000c5c       ??_C@_0L@HKL@user32?4dll?$AA@ 00453c5c     LIBC:crtmbox.obj
 0002:00000c68       ??_C@_06PAPI@1?$CDQNAN?$AA@ 00453c68     LIBC:x10fout.obj
 0002:00000c70       ??_C@_05BGNL@1?$CDINF?$AA@ 00453c70     LIBC:x10fout.obj
 0002:00000c78       ??_C@_05EDPF@1?$CDIND?$AA@ 00453c78     LIBC:x10fout.obj
 0002:00000c80       ??_C@_06LKFM@1?$CDSNAN?$AA@ 00453c80     LIBC:x10fout.obj
 0003:00000000       ___xc_a                    00454000     LIBC:crt0init.obj
 0003:00000004       ___xc_z                    00454004     LIBC:crt0init.obj
 0003:00000008       ___xi_a                    00454008     LIBC:crt0init.obj
 0003:00000014       ___xi_z                    00454014     LIBC:crt0init.obj
 0003:00000018       ___xp_a                    00454018     LIBC:crt0init.obj
 0003:00000020       ___xp_z                    00454020     LIBC:crt0init.obj
 0003:00000024       ___xt_a                    00454024     LIBC:crt0init.obj
 0003:00000028       ___xt_z                    00454028     LIBC:crt0init.obj
 0003:000003d0       _chase_back                004543d0     chase.obj
 0003:000003e8       _chase_up                  004543e8     chase.obj
 0003:00000400       _chase_right               00454400     chase.obj
 0003:00000418       _chase_active              00454418     chase.obj
 0003:000006a0       _cl_upspeed                004546a0     cl_input.obj
 0003:000006b8       _cl_forwardspeed           004546b8     cl_input.obj
 0003:000006d0       _cl_backspeed              004546d0     cl_input.obj
 0003:000006e8       _cl_sidespeed              004546e8     cl_input.obj
 0003:00000700       _cl_movespeedkey           00454700     cl_input.obj
 0003:00000718       _cl_yawspeed               00454718     cl_input.obj
 0003:00000730       _cl_pitchspeed             00454730     cl_input.obj
 0003:00000748       _cl_anglespeedkey          00454748     cl_input.obj
 0003:00000988       _cl_name                   00454988     cl_main.obj
 0003:000009a0       _cl_color                  004549a0     cl_main.obj
 0003:000009b8       _cl_shownet                004549b8     cl_main.obj
 0003:000009d0       _cl_nolerp                 004549d0     cl_main.obj
 0003:000009e8       _lookspring                004549e8     cl_main.obj
 0003:00000a00       _lookstrafe                00454a00     cl_main.obj
 0003:00000a18       _sensitivity               00454a18     cl_main.obj
 0003:00000a30       _m_pitch                   00454a30     cl_main.obj
 0003:00000a48       _m_yaw                     00454a48     cl_main.obj
 0003:00000a60       _m_forward                 00454a60     cl_main.obj
 0003:00000a78       _m_side                    00454a78     cl_main.obj
 0003:00000d24       _svc_strings               00454d24     cl_parse.obj
 0003:00001760       _registered                00455760     common.obj
 0003:00001778       _cmdline                   00455778     common.obj
 0003:00001790       _static_registered         00455790     common.obj
 0003:00001794       _standard_quake            00455794     common.obj
 0003:00001798       _pop                       00455798     common.obj
 0003:00001d10       _con_cursorspeed           00455d10     console.obj
 0003:00001d18       _con_notifytime            00455d18     console.obj
 0003:0000205c       _cvar_null_string          0045605c     cvar.obj
 0003:00002118       _gl_nobind                 00456118     gl_draw.obj
 0003:00002130       _gl_max_size               00456130     gl_draw.obj
 0003:00002148       _gl_picmip                 00456148     gl_draw.obj
 0003:00002160       _conback                   00456160     gl_draw.obj
 0003:00002164       _gl_lightmap_format        00456164     gl_draw.obj
 0003:00002168       _gl_solid_format           00456168     gl_draw.obj
 0003:0000216c       _gl_alpha_format           0045616c     gl_draw.obj
 0003:00002170       _gl_filter_min             00456170     gl_draw.obj
 0003:00002174       _gl_filter_max             00456174     gl_draw.obj
 0003:00002178       _modes                     00456178     gl_draw.obj
 0003:000024b0       _gl_subdivide_size         004564b0     gl_model.obj
 0003:00002a68       _currenttexture            00456a68     gl_rmain.obj
 0003:00002a6c       _cnttextures               00456a6c     gl_rmain.obj
 0003:00002a78       _r_norefresh               00456a78     gl_rmain.obj
 0003:00002a90       _r_drawentities            00456a90     gl_rmain.obj
 0003:00002aa8       _r_drawviewmodel           00456aa8     gl_rmain.obj
 0003:00002ac0       _r_speeds                  00456ac0     gl_rmain.obj
 0003:00002ad8       _r_fullbright              00456ad8     gl_rmain.obj
 0003:00002af0       _r_lightmap                00456af0     gl_rmain.obj
 0003:00002b08       _r_shadows                 00456b08     gl_rmain.obj
 0003:00002b20       _r_mirroralpha             00456b20     gl_rmain.obj
 0003:00002b38       _r_wateralpha              00456b38     gl_rmain.obj
 0003:00002b50       _r_dynamic                 00456b50     gl_rmain.obj
 0003:00002b68       _r_novis                   00456b68     gl_rmain.obj
 0003:00002b80       _gl_finish                 00456b80     gl_rmain.obj
 0003:00002b98       _gl_clear                  00456b98     gl_rmain.obj
 0003:00002bb0       _gl_cull                   00456bb0     gl_rmain.obj
 0003:00002bc8       _gl_texsort                00456bc8     gl_rmain.obj
 0003:00002be0       _gl_smoothmodels           00456be0     gl_rmain.obj
 0003:00002bf8       _gl_affinemodels           00456bf8     gl_rmain.obj
 0003:00002c10       _gl_polyblend              00456c10     gl_rmain.obj
 0003:00002c28       _gl_flashblend             00456c28     gl_rmain.obj
 0003:00002c40       _gl_playermip              00456c40     gl_rmain.obj
 0003:00002c58       _gl_nocolors               00456c58     gl_rmain.obj
 0003:00002c70       _gl_keeptjunctions         00456c70     gl_rmain.obj
 0003:00002c88       _gl_reporttjunctions       00456c88     gl_rmain.obj
 0003:00002ca0       _gl_doubleeyes             00456ca0     gl_rmain.obj
 0003:00002cb8       _r_avertexnormals          00456cb8     gl_rmain.obj
 0003:00003450       _r_avertexnormal_dots      00457450     gl_rmain.obj
 0003:00007450       _shadedots                 0045b450     gl_rmain.obj
 0003:000076d8       _dottexture                0045b6d8     gl_rmisc.obj
 0003:00007890       _scr_viewsize              0045b890     gl_screen.obj
 0003:000078a8       _scr_fov                   0045b8a8     gl_screen.obj
 0003:000078c0       _scr_conspeed              0045b8c0     gl_screen.obj
 0003:000078d8       _scr_centertime            0045b8d8     gl_screen.obj
 0003:000078f0       _scr_showram               0045b8f0     gl_screen.obj
 0003:00007908       _scr_showturtle            0045b908     gl_screen.obj
 0003:00007920       _scr_showpause             0045b920     gl_screen.obj
 0003:00007938       _scr_printspeed            0045b938     gl_screen.obj
 0003:00007950       _gl_triplebuffer           0045b950     gl_screen.obj
 0003:00007b00       _lowresmodes               0045bb00     gl_vidnt.obj
 0003:00007b20       _vid_modenum               0045bb20     gl_vidnt.obj
 0003:00007b28       _gl_ztrick                 0045bb28     gl_vidnt.obj
 0003:00007b40       _modestate                 0045bb40     gl_vidnt.obj
 0003:00007b48       _vid_mode                  0045bb48     gl_vidnt.obj
 0003:00007b60       __vid_default_mode         0045bb60     gl_vidnt.obj
 0003:00007b78       __vid_default_mode_win     0045bb78     gl_vidnt.obj
 0003:00007b90       _vid_wait                  0045bb90     gl_vidnt.obj
 0003:00007ba8       _vid_nopageflip            0045bba8     gl_vidnt.obj
 0003:00007bc0       __vid_wait_override        0045bbc0     gl_vidnt.obj
 0003:00007bd8       _vid_config_x              0045bbd8     gl_vidnt.obj
 0003:00007bf0       _vid_config_y              0045bbf0     gl_vidnt.obj
 0003:00007c08       _vid_stretch_by_2          0045bc08     gl_vidnt.obj
 0003:00007c20       __windowed_mouse           0045bc20     gl_vidnt.obj
 0003:00007c38       _texture_mode              0045bc38     gl_vidnt.obj
 0003:00007c3c       _texture_extension_number  0045bc3c     gl_vidnt.obj
 0003:00007c68       _scantokey                 0045bc68     gl_vidnt.obj
 0003:00007ce8       _shiftscantokey            0045bce8     gl_vidnt.obj
 0003:000086c0       _turbsin                   0045c6c0     gl_warp.obj
 0003:00008ad0       _host_framerate            0045cad0     host.obj
 0003:00008ae8       _host_speeds               0045cae8     host.obj
 0003:00008b00       _sys_ticrate               0045cb00     host.obj
 0003:00008b18       _serverprofile             0045cb18     host.obj
 0003:00008b30       _fraglimit                 0045cb30     host.obj
 0003:00008b48       _timelimit                 0045cb48     host.obj
 0003:00008b60       _teamplay                  0045cb60     host.obj
 0003:00008b78       _samelevel                 0045cb78     host.obj
 0003:00008b90       _noexit                    0045cb90     host.obj
 0003:00008ba8       _developer                 0045cba8     host.obj
 0003:00008bc0       _skill                     0045cbc0     host.obj
 0003:00008bd8       _deathmatch                0045cbd8     host.obj
 0003:00008bf0       _coop                      0045cbf0     host.obj
 0003:00008c08       _pausable                  0045cc08     host.obj
 0003:00008c20       _temp1                     0045cc20     host.obj
 0003:00009908       _m_filter                  0045d908     in_win.obj
 0003:00009930       _dwAxisFlags               0045d930     in_win.obj
 0003:00009948       _in_joystick               0045d948     in_win.obj
 0003:00009960       _joy_name                  0045d960     in_win.obj
 0003:00009978       _joy_advanced              0045d978     in_win.obj
 0003:00009990       _joy_advaxisx              0045d990     in_win.obj
 0003:000099a8       _joy_advaxisy              0045d9a8     in_win.obj
 0003:000099c0       _joy_advaxisz              0045d9c0     in_win.obj
 0003:000099d8       _joy_advaxisr              0045d9d8     in_win.obj
 0003:000099f0       _joy_advaxisu              0045d9f0     in_win.obj
 0003:00009a08       _joy_advaxisv              0045da08     in_win.obj
 0003:00009a20       _joy_forwardthreshold      0045da20     in_win.obj
 0003:00009a38       _joy_sidethreshold         0045da38     in_win.obj
 0003:00009a50       _joy_pitchthreshold        0045da50     in_win.obj
 0003:00009a68       _joy_yawthreshold          0045da68     in_win.obj
 0003:00009a80       _joy_forwardsensitivity    0045da80     in_win.obj
 0003:00009a98       _joy_sidesensitivity       0045da98     in_win.obj
 0003:00009ab0       _joy_pitchsensitivity      0045dab0     in_win.obj
 0003:00009ac8       _joy_yawsensitivity        0045dac8     in_win.obj
 0003:00009ae0       _joy_wwhack1               0045dae0     in_win.obj
 0003:00009af8       _joy_wwhack2               0045daf8     in_win.obj
 0003:00009fa0       _keynames                  0045dfa0     keys.obj
 0003:0000a594       _nanmask                   0045e594     mathlib.obj
 0003:0000a5e0       _setup_cursor              0045e5e0     menu.obj
 0003:0000a5e4       _setup_cursor_table        0045e5e4     menu.obj
 0003:0000a5f8       _net_helpMessage           0045e5f8     menu.obj
 0003:0000a638       _bindnames                 0045e638     menu.obj
 0003:0000a6c8       _serialConfig_cursor_table 0045e6c8     menu.obj
 0003:0000a700       _serialConfig_baudrate     0045e700     menu.obj
 0003:0000a718       _modemConfig_cursor_table  0045e718     menu.obj
 0003:0000a72c       _lanConfig_cursor          0045e72c     menu.obj
 0003:0000a730       _lanConfig_cursor_table    0045e730     menu.obj
 0003:0000a740       _levels                    0045e740     menu.obj
 0003:0000a870       _hipnoticlevels            0045e870     menu.obj
 0003:0000a900       _roguelevels               0045e900     menu.obj
 0003:0000a988       _episodes                  0045e988     menu.obj
 0003:0000a9e0       _hipnoticepisodes          0045e9e0     menu.obj
 0003:0000aa28       _rogueepisodes             0045ea28     menu.obj
 0003:0000aa58       _gameoptions_cursor_table  0045ea58     menu.obj
 0003:0000c830       _banMask                   00460830     net_dgrm.obj
 0003:0000c838       _testPollProcedure         00460838     net_dgrm.obj
 0003:0000c850       _test2PollProcedure        00460850     net_dgrm.obj
 0003:0000cd28       _DEFAULTnet_hostport       00460d28     net_main.obj
 0003:0000cd2c       _slistLocal                00460d2c     net_main.obj
 0003:0000cd30       _slistSendProcedure        00460d30     net_main.obj
 0003:0000cd48       _slistPollProcedure        00460d48     net_main.obj
 0003:0000cd60       _net_messagetimeout        00460d60     net_main.obj
 0003:0000cd78       _hostname                  00460d78     net_main.obj
 0003:0000cd90       _config_com_port           00460d90     net_main.obj
 0003:0000cda8       _config_com_irq            00460da8     net_main.obj
 0003:0000cdc0       _config_com_baud           00460dc0     net_main.obj
 0003:0000cdd8       _config_com_modem          00460dd8     net_main.obj
 0003:0000cdf0       _config_modem_dialtype     00460df0     net_main.obj
 0003:0000ce08       _config_modem_clear        00460e08     net_main.obj
 0003:0000ce20       _config_modem_init         00460e20     net_main.obj
 0003:0000ce38       _config_modem_hangup       00460e38     net_main.obj
 0003:0000ce50       _vcrFile                   00460e50     net_main.obj
 0003:0000d338       _net_drivers               00461338     net_win.obj
 0003:0000d518       _net_numdrivers            00461518     net_win.obj
 0003:0000d520       _net_landrivers            00461520     net_win.obj
 0003:0000d7c0       _net_numlandrivers         004617c0     net_win.obj
 0003:0000dc48       _sv_aim                    00461c48     pr_cmds.obj
 0003:0000dc60       _pr_builtin                00461c60     pr_cmds.obj
 0003:0000dd9c       _pr_builtins               00461d9c     pr_cmds.obj
 0003:0000dda0       _pr_numbuiltins            00461da0     pr_cmds.obj
 0003:0000e090       _type_size                 00462090     pr_edict.obj
 0003:0000e0b0       _nomonsters                004620b0     pr_edict.obj
 0003:0000e0c8       _gamecfg                   004620c8     pr_edict.obj
 0003:0000e0e0       _scratch1                  004620e0     pr_edict.obj
 0003:0000e0f8       _scratch2                  004620f8     pr_edict.obj
 0003:0000e110       _scratch3                  00462110     pr_edict.obj
 0003:0000e128       _scratch4                  00462128     pr_edict.obj
 0003:0000e140       _savedgamecfg              00462140     pr_edict.obj
 0003:0000e158       _saved1                    00462158     pr_edict.obj
 0003:0000e170       _saved2                    00462170     pr_edict.obj
 0003:0000e188       _saved3                    00462188     pr_edict.obj
 0003:0000e1a0       _saved4                    004621a0     pr_edict.obj
 0003:0000e790       _pr_opnames                00462790     pr_exec.obj
 0003:0000ec4c       _ramp1                     00462c4c     r_part.obj
 0003:0000ec6c       _ramp2                     00462c6c     r_part.obj
 0003:0000ec8c       _ramp3                     00462c8c     r_part.obj
 0003:0000ecac       _beamlength                00462cac     r_part.obj
 0003:0000ecb0       _avelocity                 00462cb0     r_part.obj
 0003:0000ecbc       _partstep                  00462cbc     r_part.obj
 0003:0000ecc0       _timescale                 00462cc0     r_part.obj
 0003:0000ed44       _hipweapons                00462d44     sbar.obj
 0003:0000f274       _sound_nominal_clip_dist   00463274     snd_dma.obj
 0003:0000f278       _desired_speed             00463278     snd_dma.obj
 0003:0000f27c       _desired_bits              0046327c     snd_dma.obj
 0003:0000f280       _bgmvolume                 00463280     snd_dma.obj
 0003:0000f298       _volume                    00463298     snd_dma.obj
 0003:0000f2b0       _nosound                   004632b0     snd_dma.obj
 0003:0000f2c8       _precache                  004632c8     snd_dma.obj
 0003:0000f2e0       _loadas8bit                004632e0     snd_dma.obj
 0003:0000f2f8       _bgmbuffer                 004632f8     snd_dma.obj
 0003:0000f310       _ambient_level             00463310     snd_dma.obj
 0003:0000f328       _ambient_fade              00463328     snd_dma.obj
 0003:0000f340       _snd_noextraupdate         00463340     snd_dma.obj
 0003:0000f358       _snd_show                  00463358     snd_dma.obj
 0003:0000f370       __snd_mixahead             00463370     snd_dma.obj
 0003:0000f388       _fakedma_updates           00463388     snd_dma.obj
 0003:00010078       _sv_friction               00464078     sv_phys.obj
 0003:00010090       _sv_stopspeed              00464090     sv_phys.obj
 0003:000100a8       _sv_gravity                004640a8     sv_phys.obj
 0003:000100c0       _sv_maxvelocity            004640c0     sv_phys.obj
 0003:000100d8       _sv_nostep                 004640d8     sv_phys.obj
 0003:00010268       _sv_edgefriction           00464268     sv_user.obj
 0003:00010280       _sv_idealpitchscale        00464280     sv_user.obj
 0003:00010298       _sv_maxspeed               00464298     sv_user.obj
 0003:000102b0       _sv_accelerate             004642b0     sv_user.obj
 0003:000106c8       _lcd_x                     004646c8     view.obj
 0003:000106e0       _lcd_yaw                   004646e0     view.obj
 0003:000106f8       _scr_ofsx                  004646f8     view.obj
 0003:00010710       _scr_ofsy                  00464710     view.obj
 0003:00010728       _scr_ofsz                  00464728     view.obj
 0003:00010740       _cl_rollspeed              00464740     view.obj
 0003:00010758       _cl_rollangle              00464758     view.obj
 0003:00010770       _cl_bob                    00464770     view.obj
 0003:00010788       _cl_bobcycle               00464788     view.obj
 0003:000107a0       _cl_bobup                  004647a0     view.obj
 0003:000107b8       _v_kicktime                004647b8     view.obj
 0003:000107d0       _v_kickroll                004647d0     view.obj
 0003:000107e8       _v_kickpitch               004647e8     view.obj
 0003:00010800       _v_iyaw_cycle              00464800     view.obj
 0003:00010818       _v_iroll_cycle             00464818     view.obj
 0003:00010830       _v_ipitch_cycle            00464830     view.obj
 0003:00010848       _v_iyaw_level              00464848     view.obj
 0003:00010860       _v_iroll_level             00464860     view.obj
 0003:00010878       _v_ipitch_level            00464878     view.obj
 0003:00010890       _v_idlescale               00464890     view.obj
 0003:000108a8       _crosshair                 004648a8     view.obj
 0003:000108c0       _cl_crossx                 004648c0     view.obj
 0003:000108d8       _cl_crossy                 004648d8     view.obj
 0003:000108f0       _gl_cshiftpercent          004648f0     view.obj
 0003:00010908       _v_centermove              00464908     view.obj
 0003:00010920       _v_centerspeed             00464920     view.obj
 0003:00010938       _cshift_empty              00464938     view.obj
 0003:00010948       _cshift_water              00464948     view.obj
 0003:00010958       _cshift_slime              00464958     view.obj
 0003:00010968       _cshift_lava               00464968     view.obj
 0003:00010978       _v_gamma                   00464978     view.obj
 0003:00011294       __fltused                  00465294     LIBC:fpinit.obj
 0003:00011298       __ldused                   00465298     LIBC:fpinit.obj
 0003:0001129c       __FPinit                   0046529c     LIBC:fpinit.obj
 0003:000112a0       __FPmtinit                 004652a0     LIBC:fpinit.obj
 0003:000112a4       __FPmtterm                 004652a4     LIBC:fpinit.obj
 0003:000112e0       __pctype                   004652e0     LIBC:ctype.obj
 0003:000112e4       __pwctype                  004652e4     LIBC:ctype.obj
 0003:000112e8       __ctype                    004652e8     LIBC:ctype.obj
 0003:000114ec       ___mb_cur_max              004654ec     LIBC:nlsdata1.obj
 0003:000114f0       ___decimal_point           004654f0     LIBC:nlsdata1.obj
 0003:000114f4       ___decimal_point_length    004654f4     LIBC:nlsdata1.obj
 0003:00011540       __half                     00465540     LIBC:pow.obj
 0003:00011550       __aexit_rtn                00465550     LIBC:wincrt0.obj
 0003:00011554       ___app_type                00465554     LIBC:wincrt0.obj
 0003:00011558       __cfltcvt_tab              00465558     LIBC:cmiscdat.obj
 0003:00011570       __indefinite               00465570     LIBC:87disp.obj
 0003:0001157a       __piby2                    0046557a     LIBC:87disp.obj
 0003:0001158c       __cpower                   0046558c     LIBC:87disp.obj
 0003:000115a0       __iob                      004655a0     LIBC:_file.obj
 0003:00011820       ___nullstring              00465820     LIBC:output.obj
 0003:00011824       ___wnullstring             00465824     LIBC:output.obj
 0003:00011830       ___badioinfo               00465830     LIBC:ioinit.obj
 0003:00011840       __OP_ATAN2jmptab           00465840     LIBC:87triga.obj
 0003:00011968       __d_inf                    00465968     LIBC:util.obj
 0003:00011970       __d_ind                    00465970     LIBC:util.obj
 0003:00011978       __d_max                    00465978     LIBC:util.obj
 0003:00011980       __d_min                    00465980     LIBC:util.obj
 0003:00011988       __d_mzero                  00465988     LIBC:util.obj
 0003:000119a8       __amblksiz                 004659a8     LIBC:heapinit.obj
 0003:000119ac       ___sbh_threshold           004659ac     LIBC:sbheap.obj
 0003:000119b0       __infinity                 004659b0     LIBC:87tran.obj
 0003:000119ba       __minfinity                004659ba     LIBC:87tran.obj
 0003:000119c4       __logemax                  004659c4     LIBC:87tran.obj
 0003:000119f4       __OP_EXPjmptab             004659f4     LIBC:87tran.obj
 0003:00011a14       __NLG_Destination          00465a14     LIBC:exsup.obj
 0003:00011a34       __sys_errlist              00465a34     LIBC:syserr.obj
 0003:00011ae4       __sys_nerr                 00465ae4     LIBC:syserr.obj
 0003:00011c50       __XcptActTab               00465c50     LIBC:winxfltr.obj
 0003:00011cc8       __First_FPE_Indx           00465cc8     LIBC:winxfltr.obj
 0003:00011ccc       __Num_FPE                  00465ccc     LIBC:winxfltr.obj
 0003:00011cd0       __XcptActTabCount          00465cd0     LIBC:winxfltr.obj
 0003:00011cd4       __fpecode                  00465cd4     LIBC:winxfltr.obj
 0003:00011da0       __matherr_flag             00465da0     LIBC:matherr.obj
 0003:00012008       __pow10pos                 00466008     LIBC:constpow.obj
 0003:00012168       __pow10neg                 00466168     LIBC:constpow.obj
 0003:000131a0       _msg_suppress_1            004671a0     common.obj
 0003:000135b4       _con_text                  004675b4     console.obj
 0003:003bf9c8       _skychain                  008139c8     gl_rsurf.obj
 0003:003bf9cc       _waterchain                008139cc     gl_rsurf.obj
 0003:003bf9d0       _qglMTexCoord2fSGIS        008139d0     gl_rsurf.obj
 0003:003bf9d4       _qglSelectTextureSGIS      008139d4     gl_rsurf.obj
 0003:003bf9d8       _mtexenabled               008139d8     gl_rsurf.obj
 0003:003c02d8       _vid_default               008142d8     gl_vidnt.obj
 0003:003c02e0       _is8bit                    008142e0     gl_vidnt.obj
 0003:003c02e4       _isPermedia                008142e4     gl_vidnt.obj
 0003:003c02e8       _gl_mtexable               008142e8     gl_vidnt.obj
 0003:003c0394       _shift_down                00814394     keys.obj
 0003:003c0398       _edit_line                 00814398     keys.obj
 0003:003c039c       _history_line              0081439c     keys.obj
 0003:003c03a0       _team_message              008143a0     keys.obj
 0003:003c03b0       _vec3_origin               008143b0     mathlib.obj
 0003:003c03bc       _m_serverInfoMessage       008143bc     menu.obj
 0003:003c03c0       _searchComplete            008143c0     menu.obj
 0003:003c03e4       _packetsSent               008143e4     net_dgrm.obj
 0003:003c03e8       _packetsReSent             008143e8     net_dgrm.obj
 0003:003c03ec       _packetsReceived           008143ec     net_dgrm.obj
 0003:003c03f0       _receivedDuplicateCount    008143f0     net_dgrm.obj
 0003:003c03f4       _shortPacketCount          008143f4     net_dgrm.obj
 0003:003c03f8       _banAddr                   008143f8     net_dgrm.obj
 0003:003c0408       _localconnectpending       00814408     net_loop.obj
 0003:003c040c       _loop_client               0081440c     net_loop.obj
 0003:003c0410       _loop_server               00814410     net_loop.obj
 0003:003c0428       _net_activeSockets         00814428     net_main.obj
 0003:003c042c       _net_freeSockets           0081442c     net_main.obj
 0003:003c0430       _net_numsockets            00814430     net_main.obj
 0003:003c0434       _serialAvailable           00814434     net_main.obj
 0003:003c0438       _ipxAvailable              00814438     net_main.obj
 0003:003c043c       _tcpipAvailable            0081443c     net_main.obj
 0003:003c0444       _slistInProgress           00814444     net_main.obj
 0003:003c0448       _slistSilent               00814448     net_main.obj
 0003:003c044c       _net_activeconnections     0081444c     net_main.obj
 0003:003c0450       _messagesSent              00814450     net_main.obj
 0003:003c0454       _messagesReceived          00814454     net_main.obj
 0003:003c0458       _unreliableMessagesSent    00814458     net_main.obj
 0003:003c045c       _unreliableMessagesReceived 0081445c     net_main.obj
 0003:003c0460       _configRestored            00814460     net_main.obj
 0003:003c0464       _recording                 00814464     net_main.obj
 0003:003c0468       _hostCacheCount            00814468     net_main.obj
 0003:003c04cc       _winsock_initialized       008144cc     net_wins.obj
 0003:003c0e38       _snd_blocked               00814e38     snd_dma.obj
 0003:003c0e3c       _snd_initialized           00814e3c     snd_dma.obj
 0003:003c0e40       _shm                       00814e40     snd_dma.obj
 0003:003c0e44       _sound_started             00814e44     snd_dma.obj
 0003:003c0e48       _fakedma                   00814e48     snd_dma.obj
 0003:003c18cc       ___fastflag                008158cc     LIBC:fpinit.obj
 0003:003c18d0       __adjust_fdiv              008158d0     LIBC:fpinit.obj
 0003:003c18fc       _errno                     008158fc     LIBC:crt0dat.obj
 0003:003c1900       __doserrno                 00815900     LIBC:crt0dat.obj
 0003:003c1904       __umaskval                 00815904     LIBC:crt0dat.obj
 0003:003c1908       __osver                    00815908     LIBC:crt0dat.obj
 0003:003c190c       __winver                   0081590c     LIBC:crt0dat.obj
 0003:003c1910       __winmajor                 00815910     LIBC:crt0dat.obj
 0003:003c1914       __winminor                 00815914     LIBC:crt0dat.obj
 0003:003c1918       ___argc                    00815918     LIBC:crt0dat.obj
 0003:003c191c       ___argv                    0081591c     LIBC:crt0dat.obj
 0003:003c1920       ___wargv                   00815920     LIBC:crt0dat.obj
 0003:003c1924       __environ                  00815924     LIBC:crt0dat.obj
 0003:003c1928       ___initenv                 00815928     LIBC:crt0dat.obj
 0003:003c192c       __wenviron                 0081592c     LIBC:crt0dat.obj
 0003:003c1930       ___winitenv                00815930     LIBC:crt0dat.obj
 0003:003c1934       __pgmptr                   00815934     LIBC:crt0dat.obj
 0003:003c1938       __wpgmptr                  00815938     LIBC:crt0dat.obj
 0003:003c193c       __exitflag                 0081593c     LIBC:crt0dat.obj
 0003:003c1940       __C_Termination_Done       00815940     LIBC:crt0dat.obj
 0003:003c1944       __C_Exit_Done              00815944     LIBC:crt0dat.obj
 0003:003c1948       __aenvptr                  00815948     LIBC:wincrt0.obj
 0003:003c194c       __wenvptr                  0081594c     LIBC:wincrt0.obj
 0003:003c1950       ___error_mode              00815950     LIBC:wincrt0.obj
 0003:003c1964       __cflush                   00815964     LIBC:_file.obj
 0003:003c1968       __stdbuf                   00815968     LIBC:_sftbuf.obj
 0003:003c1984       ___lc_handle               00815984     LIBC:nlsdata2.obj
 0003:003c199c       ___lc_codepage             0081599c     LIBC:nlsdata2.obj
 0003:003c19a0       ___lc_collate_cp           008159a0     LIBC:nlsdata2.obj
 0003:003c19a4       __newmode                  008159a4     LIBC:_newmode.obj
 0003:003c19a8       ?_pnhHeap@@3P6AHI@ZA       008159a8     LIBC:handler.obj
 0003:003c19c8       __pxcptinfoptrs            008159c8     LIBC:winxfltr.obj
 0003:003c1ad4       __adbgmsg                  00815ad4     LIBC:crt0msg.obj
 0003:003c1b08       __commode                  00815b08     LIBC:ncommode.obj
 0003:003c1b1c       __fmode                    00815b1c     LIBC:txtmode.obj
 0003:003c1b20       _hunk_base                 00815b20     <common>
 0003:003c1b24       _hunk_tempactive           00815b24     <common>
 0003:003c1b28       _mainzone                  00815b28     <common>
 0003:003c1b2c       _hunk_low_used             00815b2c     <common>
 0003:003c1b30       _hunk_size                 00815b30     <common>
 0003:003c1b34       _hunk_high_used            00815b34     <common>
 0003:003c1b40       _cache_head                00815b40     <common>
 0003:003c1b68       _hunk_tempmark             00815b68     <common>
 0003:003c1b6c       _wad_lumps                 00815b6c     <common>
 0003:003c1b70       _wad_base                  00815b70     <common>
 0003:003c1b74       _wad_numlumps              00815b74     <common>
 0003:003c1b78       _v_dmg_time                00815b78     <common>
 0003:003c1b7c       _v_dmg_roll                00815b7c     <common>
 0003:003c1b80       _v_blend                   00815b80     <common>
 0003:003c1b90       _forward                   00815b90     <common>
 0003:003c1ba0       _right                     00815ba0     <common>
 0003:003c1bac       _v_dmg_pitch               00815bac     <common>
 0003:003c1bb0       _up                        00815bb0     <common>
 0003:003c1bc0       _gammatable                00815bc0     <common>
 0003:003c1cc0       _ramps                     00815cc0     <common>
 0003:003c1fc0       _WinNT                     00815fc0     <common>
 0003:003c1fc4       _sys_checksum              00815fc4     <common>
 0003:003c1fc8       _global_hInstance          00815fc8     <common>
 0003:003c1fcc       _Minimized                 00815fcc     <common>
 0003:003c1fd0       _ActiveApp                 00815fd0     <common>
 0003:003c1fe0       _sys_handles               00815fe0     <common>
 0003:003c2008       _hwnd_dialog               00816008     <common>
 0003:003c200c       _global_nCmdShow           0081600c     <common>
 0003:003c2010       _hinput                    00816010     <common>
 0003:003c2020       _argv                      00816020     <common>
 0003:003c20e8       _isDedicated               008160e8     <common>
 0003:003c20ec       _houtput                   008160ec     <common>
 0003:003c20f0       _angles                    008160f0     <common>
 0003:003c20f4       _origin                    008160f4     <common>
 0003:003c2100       _cmd                       00816100     <common>
 0003:003c2118       _onground                  00816118     <common>
 0003:003c211c       _sv_player                 0081611c     <common>
 0003:003c2120       _wishdir                   00816120     <common>
 0003:003c212c       _wishspeed                 0081612c     <common>
 0003:003c2130       _velocity                  00816130     <common>
 0003:003c2134       _c_yes                     00816134     <common>
 0003:003c2138       _c_no                      00816138     <common>
 0003:003c2140       _svs                       00816140     <common>
 0003:003c2160       _localmodels               00816160     <common>
 0003:003c2660       _sv                        00816660     <common>
 0003:003c5c58       _fatbytes                  00819c58     <common>
 0003:003c5c60       _fatpvs                    00819c60     <common>
 0003:003c6060       _pDSBuf                    0081a060     <common>
 0003:003c6064       _pDS                       0081a064     <common>
 0003:003c6068       _hWaveOut                  0081a068     <common>
 0003:003c606c       _hData                     0081a06c     <common>
 0003:003c6070       _lpWaveHdr                 0081a070     <common>
 0003:003c6080       _mmstarttime               0081a080     <common>
 0003:003c608c       _hInstDS                   0081a08c     <common>
 0003:003c6090       _gSndBufSize               0081a090     <common>
 0003:003c6094       _lpData                    0081a094     <common>
 0003:003c6098       _pDSPBuf                   0081a098     <common>
 0003:003c609c       _pDirectSoundCreate        0081a09c     <common>
 0003:003c60a0       _hWaveHdr                  0081a0a0     <common>
 0003:003c60a4       _snd_linear_count          0081a0a4     <common>
 0003:003c60c0       _paintbuffer               0081a0c0     <common>
 0003:003c70c0       _snd_out                   0081b0c0     <common>
 0003:003c70e0       _snd_scaletable            0081b0e0     <common>
 0003:003cf0e0       _snd_vol                   008230e0     <common>
 0003:003cf0e4       _snd_p                     008230e4     <common>
 0003:003cf0e8       _iff_end                   008230e8     <common>
 0003:003cf0ec       _last_chunk                008230ec     <common>
 0003:003cf0f0       _data_p                    008230f0     <common>
 0003:003cf0f4       _iff_chunk_len             008230f4     <common>
 0003:003cf0f8       _iff_data                  008230f8     <common>
 0003:003cf100       _listener_forward          00823100     <common>
 0003:003cf10c       _soundtime                 0082310c     <common>
 0003:003cf110       _paintedtime               00823110     <common>
 0003:003cf120       _ambient_sfx               00823120     <common>
 0003:003cf130       _known_sfx                 00823130     <common>
 0003:003cf140       _listener_right            00823140     <common>
 0003:003cf160       _sn                        00823160     <common>
 0003:003cf188       _total_channels            00823188     <common>
 0003:003cf190       _listener_origin           00823190     <common>
 0003:003cf1a0       _listener_up               008231a0     <common>
 0003:003cf1ac       _num_sfx                   008231ac     <common>
 0003:003cf1c0       _channels                  008231c0     <common>
 0003:003d0bc0       _sb_armor                  00824bc0     <common>
 0003:003d0be0       _sb_weapons                00824be0     <common>
 0003:003d0cc0       _rsb_teambord              00824cc0     <common>
 0003:003d0ce0       _sb_faces                  00824ce0     <common>
 0003:003d0d18       _sb_updates                00824d18     <common>
 0003:003d0d20       _sb_sigil                  00824d20     <common>
 0003:003d0d40       _sb_items                  00824d40     <common>
 0003:003d0dc0       _sb_face_quad              00824dc0     <common>
 0003:003d0dc4       _sb_sbar                   00824dc4     <common>
 0003:003d0dc8       _hsb_items                 00824dc8     <common>
 0003:003d0de0       _sb_nums                   00824de0     <common>
 0003:003d0e38       _scoreboardlines           00824e38     <common>
 0003:003d0e40       _sb_ammo                   00824e40     <common>
 0003:003d0e50       _sb_slash                  00824e50     <common>
 0003:003d0e54       _sb_colon                  00824e54     <common>
 0003:003d0e58       _sb_face_invuln            00824e58     <common>
 0003:003d0e5c       _sb_face_invis             00824e5c     <common>
 0003:003d0e60       _scoreboardbottom          00824e60     <common>
 0003:003d0ea0       _sb_showscores             00824ea0     <common>
 0003:003d0ea4       _sb_ibar                   00824ea4     <common>
 0003:003d0ea8       _rsb_invbar                00824ea8     <common>
 0003:003d0ec0       _scoreboardtext            00824ec0     <common>
 0003:003d1000       _sb_scorebar               00825000     <common>
 0003:003d1020       _scoreboardtop             00825020     <common>
 0003:003d1060       _rsb_ammo                  00825060     <common>
 0003:003d1070       _rsb_items                 00825070     <common>
 0003:003d1080       _hsb_weapons               00825080     <common>
 0003:003d1120       _fragsort                  00825120     <common>
 0003:003d1160       _rsb_weapons               00825160     <common>
 0003:003d1174       _sb_face_invis_invuln      00825174     <common>
 0003:003d1178       _r_numparticles            00825178     <common>
 0003:003d117c       _particles                 0082517c     <common>
 0003:003d1180       _free_particles            00825180     <common>
 0003:003d11a0       _avelocities               008251a0     <common>
 0003:003d1938       _active_particles          00825938     <common>
 0003:003d1940       _pr_stack                  00825940     <common>
 0003:003d1a40       _pr_xstatement             00825a40     <common>
 0003:003d1a60       _localstack                00825a60     <common>
 0003:003d3a60       _pr_trace                  00827a60     <common>
 0003:003d3a64       _pr_depth                  00827a64     <common>
 0003:003d3a68       _pr_xfunction              00827a68     <common>
 0003:003d3a6c       _pr_argc                   00827a6c     <common>
 0003:003d3a70       _localstack_used           00827a70     <common>
 0003:003d3a74       _pr_global_struct          00827a74     <common>
 0003:003d3a78       _pr_statements             00827a78     <common>
 0003:003d3a7c       _pr_edict_size             00827a7c     <common>
 0003:003d3a80       _pr_globaldefs             00827a80     <common>
 0003:003d3a84       _pr_globals                00827a84     <common>
 0003:003d3a88       _progs                     00827a88     <common>
 0003:003d3a8c       _pr_fielddefs              00827a8c     <common>
 0003:003d3a90       _pr_crc                    00827a90     <common>
 0003:003d3a94       _pr_strings                00827a94     <common>
 0003:003d3a98       _pr_functions              00827a98     <common>
 0003:003d3a9c       _c_notvis                  00827a9c     <common>
 0003:003d3aa0       _checkpvs                  00827aa0     <common>
 0003:003d3ea0       _c_invis                   00827ea0     <common>
 0003:003d3ec0       _pr_string_temp            00827ec0     <common>
 0003:003d3f40       _winsock_lib_initialized   00827f40     <common>
 0003:003d3f60       _winsockdata               00827f60     <common>
 0003:003d4100       _vcrSendMessage            00828100     <common>
 0003:003d4118       _GetModemConfig            00828118     <common>
 0003:003d4120       _vcrGetMessage             00828120     <common>
 0003:003d4138       _GetComPortConfig          00828138     <common>
 0003:003d413c       _net_driverlevel           0082813c     <common>
 0003:003d4140       _net_time                  00828140     <common>
 0003:003d4160       _hostcache                 00828160     <common>
 0003:003d4460       _SetComPortConfig          00828460     <common>
 0003:003d4480       _net_message               00828480     <common>
 0003:003d44a0       _my_tcpip_address          008284a0     <common>
 0003:003d44e0       _SetModemConfig            008284e0     <common>
 0003:003d4500       _my_ipx_address            00828500     <common>
 0003:003d4540       _net_hostport              00828540     <common>
 0003:003d4550       _vcrConnect                00828550     <common>
 0003:003d4560       _droppedDatagrams          00828560     <common>
 0003:003d4580       _packetBuffer              00828580     <common>
 0003:003d4988       _serialConfig_cursor       00828988     <common>
 0003:003d4990       _searchCompleteTime        00828990     <common>
 0003:003d4998       _m_singleplayer_cursor     00828998     <common>
 0003:003d499c       _m_net_items               0082899c     <common>
 0003:003d49a0       _setup_top                 008289a0     <common>
 0003:003d49a4       _bind_grab                 008289a4     <common>
 0003:003d49a8       _m_save_demonum            008289a8     <common>
 0003:003d49ac       _maxplayers                008289ac     <common>
 0003:003d49b0       _setup_bottom              008289b0     <common>
 0003:003d49b4       _serialConfig_comport      008289b4     <common>
 0003:003d49c0       _setup_myname              008289c0     <common>
 0003:003d49e0       _m_return_reason           008289e0     <common>
 0003:003d4a00       _serialConfig_phone        00828a00     <common>
 0003:003d4a10       _keys_cursor               00828a10     <common>
 0003:003d4a14       _modemConfig_cursor        00828a14     <common>
 0003:003d4a18       _m_state                   00828a18     <common>
 0003:003d4a1c       _options_cursor            00828a1c     <common>
 0003:003d4a20       _m_quit_prevstate          00828a20     <common>
 0003:003d4a30       _setup_hostname            00828a30     <common>
 0003:003d4a40       _slist_cursor              00828a40     <common>
 0003:003d4a44       _vid_menukeyfn             00828a44     <common>
 0003:003d4a60       _loadable                  00828a60     <common>
 0003:003d4a90       _help_page                 00828a90     <common>
 0003:003d4a94       _m_net_cursor              00828a94     <common>
 0003:003d4a98       _m_recursiveDraw           00828a98     <common>
 0003:003d4a9c       _m_multiplayer_cursor      00828a9c     <common>
 0003:003d4aa0       _setup_oldtop              00828aa0     <common>
 0003:003d4aa8       _m_serverInfoMessageTime   00828aa8     <common>
 0003:003d4ab0       _modemConfig_hangup        00828ab0     <common>
 0003:003d4ac0       _m_filenames               00828ac0     <common>
 0003:003d4ca0       _load_cursor               00828ca0     <common>
 0003:003d4ca4       _m_return_state            00828ca4     <common>
 0003:003d4ca8       _lanConfig_port            00828ca8     <common>
 0003:003d4cac       _modemConfig_dialing       00828cac     <common>
 0003:003d4cb0       _vid_menudrawfn            00828cb0     <common>
 0003:003d4cb4       _startepisode              00828cb4     <common>
 0003:003d4cb8       _m_main_cursor             00828cb8     <common>
 0003:003d4cc0       _modemConfig_init          00828cc0     <common>
 0003:003d4ce0       _setup_oldbottom           00828ce0     <common>
 0003:003d4ce4       _serialConfig_irq          00828ce4     <common>
 0003:003d4ce8       _wasInMenus                00828ce8     <common>
 0003:003d4cec       _gameoptions_cursor        00828cec     <common>
 0003:003d4d00       _translationTable          00828d00     <common>
 0003:003d4e00       _identityTable             00828e00     <common>
 0003:003d4f00       _msgNumber                 00828f00     <common>
 0003:003d4f04       _m_entersound              00828f04     <common>
 0003:003d4f08       _m_return_onerror          00828f08     <common>
 0003:003d4f10       _modemConfig_clear         00828f10     <common>
 0003:003d4f20       _slist_sorted              00828f20     <common>
 0003:003d4f24       _serialConfig_baud         00828f24     <common>
 0003:003d4f40       _lanConfig_joinname        00828f40     <common>
 0003:003d4f58       _startlevel                00828f58     <common>
 0003:003d4f60       _lanConfig_portname        00828f60     <common>
 0003:003d4f80       _menubound                 00828f80     <common>
 0003:003d5380       _keydown                   00829380     <common>
 0003:003d5780       _chat_buffer               00829780     <common>
 0003:003d57a0       _keyshift                  008297a0     <common>
 0003:003d5ba0       _keybindings               00829ba0     <common>
 0003:003d5fa0       _key_count                 00829fa0     <common>
 0003:003d5fc0       _consolekeys               00829fc0     <common>
 0003:003d63c0       _key_repeats               0082a3c0     <common>
 0003:003d67c0       _key_linepos               0082a7c0     <common>
 0003:003d67e0       _key_lines                 0082a7e0     <common>
 0003:003d87e0       _key_dest                  0082c7e0     <common>
 0003:003d87e4       _key_lastpress             0082c7e4     <common>
 0003:003d87e8       _mouseinitialized          0082c7e8     <common>
 0003:003d8800       _dwControlMap              0082c800     <common>
 0003:003d8820       _dwAxisMap                 0082c820     <common>
 0003:003d8838       _uiWheelMessage            0082c838     <common>
 0003:003d8840       _pdwRawValue               0082c840     <common>
 0003:003d8858       _joy_numbuttons            0082c858     <common>
 0003:003d885c       _mouse_y                   0082c85c     <common>
 0003:003d8860       _joy_avail                 0082c860     <common>
 0003:003d8864       _mouse_x                   0082c864     <common>
 0003:003d8868       _joy_oldpovstate           0082c868     <common>
 0003:003d886c       _my_accum                  0082c86c     <common>
 0003:003d8870       _old_mouse_y               0082c870     <common>
 0003:003d8874       _old_mouse_x               0082c874     <common>
 0003:003d8878       _joy_oldbuttonstate        0082c878     <common>
 0003:003d8880       _current_pos               0082c880     <common>
 0003:003d8888       _joy_advancedinit          0082c888     <common>
 0003:003d888c       _joy_id                    0082c88c     <common>
 0003:003d8890       _mouse_oldbuttonstate      0082c890     <common>
 0003:003d8894       _mouse_buttons             0082c894     <common>
 0003:003d8898       _pDirectInputCreate        0082c898     <common>
 0003:003d889c       _joy_flags                 0082c89c     <common>
 0003:003d88a0       _mouseactive               0082c8a0     <common>
 0003:003d88a4       _mx_accum                  0082c8a4     <common>
 0003:003d88a8       _joy_haspov                0082c8a8     <common>
 0003:003d88ac       _noclip_anglehack          0082c8ac     <common>
 0003:003d88b0       _current_skill             0082c8b0     <common>
 0003:003d88b4       _host_hunklevel            0082c8b4     <common>
 0003:003d88b8       _host_frametime            0082c8b8     <common>
 0003:003d88c0       _host_framecount           0082c8c0     <common>
 0003:003d88c4       _host_initialized          0082c8c4     <common>
 0003:003d88c8       _host_basepal              0082c8c8     <common>
 0003:003d88cc       _host_colormap             0082c8cc     <common>
 0003:003d88d0       _host_client               0082c8d0     <common>
 0003:003d88e0       _host_parms                0082c8e0     <common>
 0003:003d88f8       _oldrealtime               0082c8f8     <common>
 0003:003d8900       _minimum_memory            0082c900     <common>
 0003:003d8908       _host_time                 0082c908     <common>
 0003:003d8920       _host_abortserver          0082c920     <common>
 0003:003d8960       _realtime                  0082c960     <common>
 0003:003d8968       _alphaskytexture           0082c968     <common>
 0003:003d896c       _solidskytexture           0082c96c     <common>
 0003:003d8970       _warpface                  0082c970     <common>
 0003:003d8974       _speedscale                0082c974     <common>
 0003:003d8978       _psendto                   0082c978     <common>
 0003:003d897c       _window_width              0082c97c     <common>
 0003:003d8980       _pioctlsocket              0082c980     <common>
 0003:003d8984       _vid_realmode              0082c984     <common>
 0003:003d8988       _pWSACleanup               0082c988     <common>
 0003:003d898c       _baseRC                    0082c98c     <common>
 0003:003d8990       _WindowStyle               0082c990     <common>
 0003:003d8994       _gl_vendor                 0082c994     <common>
 0003:003d8998       _precvfrom                 0082c998     <common>
 0003:003d899c       _pWSAStartup               0082c99c     <common>
 0003:003d89a0       _pgethostname              0082c9a0     <common>
 0003:003d89a4       _glColorPointerEXT         0082c9a4     <common>
 0003:003d89a8       _psetsockopt               0082c9a8     <common>
 0003:003d89ac       _gl_extensions             0082c9ac     <common>
 0003:003d89b0       _DIBHeight                 0082c9b0     <common>
 0003:003d89b4       _pgethostbyname            0082c9b4     <common>
 0003:003d89b8       _pgetsockname              0082c9b8     <common>
 0003:003d89bc       _bindTexFunc               0082c9bc     <common>
 0003:003d89c0       _d_15to8table              0082c9c0     <common>
 0003:003e89c0       _maindc                    0083c9c0     <common>
 0003:003e89c4       _scr_skipupdate            0083c9c4     <common>
 0003:003e89c8       _DIBWidth                  0083c9c8     <common>
 0003:003e89cc       _dibwindow                 0083c9cc     <common>
 0003:003e89d0       _glVertexPointerEXT        0083c9d0     <common>
 0003:003e89d4       _window_y                  0083c9d4     <common>
 0003:003e89d8       _window_x                  0083c9d8     <common>
 0003:003e89dc       _pgethostbyaddr            0083c9dc     <common>
 0003:003e89e0       _gldepthmin                0083c9e0     <common>
 0003:003e89f0       _window_rect               0083c9f0     <common>
 0003:003e8a00       _gldepthmax                0083ca00     <common>
 0003:003e8a04       _pclosesocket              0083ca04     <common>
 0003:003e8a08       _glColorTableEXT           0083ca08     <common>
 0003:003e8a0c       _pWSAGetLastError          0083ca0c     <common>
 0003:003e8a10       _glTexCoordPointerEXT      0083ca10     <common>
 0003:003e8a14       _window_center_x           0083ca14     <common>
 0003:003e8a18       _window_center_y           0083ca18     <common>
 0003:003e8a1c       _glArrayElementEXT         0083ca1c     <common>
 0003:003e8a20       _gl_renderer               0083ca20     <common>
 0003:003e8a24       _window_height             0083ca24     <common>
 0003:003e8a28       _ExWindowStyle             0083ca28     <common>
 0003:003e8a30       _WindowRect                0083ca30     <common>
 0003:003e8a40       _DDActive                  0083ca40     <common>
 0003:003e8a44       _mainwindow                0083ca44     <common>
 0003:003e8a60       _d_8to24table              0083ca60     <common>
 0003:003e8e60       _psocket                   0083ce60     <common>
 0003:003e8e64       _gl_version                0083ce64     <common>
 0003:003e8e68       _oldfov                    0083ce68     <common>
 0003:003e8e6c       _glx                       0083ce6c     <common>
 0003:003e8e70       _gly                       0083ce70     <common>
 0003:003e8e74       _scr_erase_center          0083ce74     <common>
 0003:003e8e78       _clearnotify               0083ce78     <common>
 0003:003e8e7c       _scr_net                   0083ce7c     <common>
 0003:003e8e80       _scr_ram                   0083ce80     <common>
 0003:003e8e84       _scr_drawdialog            0083ce84     <common>
 0003:003e8ea0       _vid                       0083cea0     <common>
 0003:003e8ee4       _sb_lines                  0083cee4     <common>
 0003:003e8ee8       _block_drawing             0083cee8     <common>
 0003:003e8eec       _scr_copyeverything        0083ceec     <common>
 0003:003e8f00       _scr_centerstring          0083cf00     <common>
 0003:003e9300       _scr_centertime_off        0083d300     <common>
 0003:003e9304       _glheight                  0083d304     <common>
 0003:003e9308       _scr_centertime_start      0083d308     <common>
 0003:003e930c       _scr_notifystring          0083d30c     <common>
 0003:003e9310       _clearconsole              0083d310     <common>
 0003:003e9314       _scr_conlines              0083d314     <common>
 0003:003e9318       _scr_con_current           0083d318     <common>
 0003:003e9320       _scr_vrect                 0083d320     <common>
 0003:003e9334       _scr_turtle                0083d334     <common>
 0003:003e9338       _scr_copytop               0083d338     <common>
 0003:003e933c       _scr_erase_lines           0083d33c     <common>
 0003:003e9340       _oldscreensize             0083d340     <common>
 0003:003e9344       _scr_disabled_time         0083d344     <common>
 0003:003e9348       _scr_fullupdate            0083d348     <common>
 0003:003e934c       _glwidth                   0083d34c     <common>
 0003:003e9350       _scr_disabled_for_loading  0083d350     <common>
 0003:003e9354       _scr_center_lines          0083d354     <common>
 0003:003e9358       _scr_initialized           0083d358     <common>
 0003:003e935c       _scr_drawloading           0083d35c     <common>
 0003:003e9360       _blocklights               0083d360     <common>
 0003:003e9870       _nColinElim                0083d870     <common>
 0003:003e9874       _currentmodel              0083d874     <common>
 0003:003e9878       _lightmap_bytes            0083d878     <common>
 0003:003e9880       _lightmap_polys            0083d880     <common>
 0003:003e9980       _lightmaps                 0083d980     <common>
 0003:007e9980       _lightmap_textures         00c3d980     <common>
 0003:007e99a0       _lightmap_rectchange       00c3d9a0     <common>
 0003:007e9aa0       _lightmap_modified         00c3daa0     <common>
 0003:007e9ba0       _allocated                 00c3dba0     <common>
 0003:007f1ba0       _r_pcurrentvertbase        00c45ba0     <common>
 0003:007f1ba4       _skytexturenum             00c45ba4     <common>
 0003:007f1ba8       _r_viewleaf                00c45ba8     <common>
 0003:007f1bc0       _r_worldentity             00c45bc0     <common>
 0003:007f1c78       _ambientlight              00c45c78     <common>
 0003:007f1c80       _modelorg                  00c45c80     <common>
 0003:007f1ca0       _r_refdef                  00c45ca0     <common>
 0003:007f1d34       _envmap                    00c45d34     <common>
 0003:007f1d38       _mirror                    00c45d38     <common>
 0003:007f1d3c       _r_notexture_mip           00c45d3c     <common>
 0003:007f1d40       _shadevector               00c45d40     <common>
 0003:007f1d50       _vpn                       00c45d50     <common>
 0003:007f1d5c       _r_framecount              00c45d5c     <common>
 0003:007f1d60       _vup                       00c45d60     <common>
 0003:007f1d6c       _c_brush_polys             00c45d6c     <common>
 0003:007f1d70       _playertextures            00c45d70     <common>
 0003:007f1d74       _mirror_plane              00c45d74     <common>
 0003:007f1d78       _r_cache_thrash            00c45d78     <common>
 0003:007f1d80       _frustum                   00c45d80     <common>
 0003:007f1dd0       _particletexture           00c45dd0     <common>
 0003:007f1dd4       _r_visframecount           00c45dd4     <common>
 0003:007f1de0       _r_entorigin               00c45de0     <common>
 0003:007f1dec       _lastposenum               00c45dec     <common>
 0003:007f1df0       _currententity             00c45df0     <common>
 0003:007f1e00       _r_origin                  00c45e00     <common>
 0003:007f1e20       _r_world_matrix            00c45e20     <common>
 0003:007f1e60       _vright                    00c45e60     <common>
 0003:007f1e6c       _r_oldviewleaf             00c45e6c     <common>
 0003:007f1e70       _c_alias_polys             00c45e70     <common>
 0003:007f1e80       _r_base_world_matrix       00c45e80     <common>
 0003:007f1ec0       _shadelight                00c45ec0     <common>
 0003:007f1ec4       _mirrortexturenum          00c45ec4     <common>
 0003:007f1ee0       _d_lightstylevalue         00c45ee0     <common>
 0003:007f22e0       _lightspot                 00c462e0     <common>
 0003:007f22ec       _r_dlightframecount        00c462ec     <common>
 0003:007f22f0       _lightplane                00c462f0     <common>
 0003:007f22f4       _r_pefragtopnode           00c462f4     <common>
 0003:007f22f8       _lastlink                  00c462f8     <common>
 0003:007f22fc       _r_addent                  00c462fc     <common>
 0003:007f2300       _r_emaxs                   00c46300     <common>
 0003:007f2310       _r_emins                   00c46310     <common>
 0003:007f231c       _posenum                   00c4631c     <common>
 0003:007f2320       _pheader                   00c46320     <common>
 0003:007f2340       _stverts                   00c46340     <common>
 0003:007f5340       _mod_numknown              00c49340     <common>
 0003:007f5360       _triangles                 00c49360     <common>
 0003:007fd360       _loadname                  00c51360     <common>
 0003:007fd380       _loadmodel                 00c51380     <common>
 0003:007fd3a0       _mod_known                 00c513a0     <common>
 0003:00831ba0       _mod_base                  00c85ba0     <common>
 0003:00831bc0       _mod_novis                 00c85bc0     <common>
 0003:00831fc0       _poseverts                 00c85fc0     <common>
 0003:008323c0       _used                      00c863c0     <common>
 0003:0083a3c0       _alltris                   00c8e3c0     <common>
 0003:0083a3c4       _numorder                  00c8e3c4     <common>
 0003:0083a3e0       _vertexorder               00c8e3e0     <common>
 0003:008423e0       _stripcount                00c963e0     <common>
 0003:008423e4       _allverts                  00c963e4     <common>
 0003:00842400       _commands                  00c96400     <common>
 0003:0084a400       _numcommands               00c9e400     <common>
 0003:0084a404       _paliashdr                 00c9e404     <common>
 0003:0084a420       _striptris                 00c9e420     <common>
 0003:0084a620       _stripverts                00c9e620     <common>
 0003:0084a820       _aliasmodel                00c9e820     <common>
 0003:0084a824       _texels                    00c9e824     <common>
 0003:0084a828       _scrap_texnum              00c9e828     <common>
 0003:0084a840       _conback_buffer            00c9e840     <common>
 0003:0084a860       _scrap_texels              00c9e860     <common>
 0003:008ca880       _menuplyr_pixels           00d1e880     <common>
 0003:008cb880       _gltextures                00d1f880     <common>
 0003:008df880       _draw_chars                00d33880     <common>
 0003:008df884       _draw_backtile             00d33884     <common>
 0003:008df888       _numgltextures             00d33888     <common>
 0003:008df8a0       _menu_cachepics            00d338a0     <common>
 0003:008e2ea0       _menu_numcachepics         00d36ea0     <common>
 0003:008e2ea4       _char_texture              00d36ea4     <common>
 0003:008e2ea8       _pic_count                 00d36ea8     <common>
 0003:008e2eac       _pic_texels                00d36eac     <common>
 0003:008e2ec0       _scrap_allocated           00d36ec0     <common>
 0003:008e36c0       _translate_texture         00d376c0     <common>
 0003:008e36c4       _scrap_uploads             00d376c4     <common>
 0003:008e36c8       _draw_disc                 00d376c8     <common>
 0003:008e36cc       _scrap_dirty               00d376cc     <common>
 0003:008e36d0       _cvar_vars                 00d376d0     <common>
 0003:008e36d4       _con_forcedup              00d376d4     <common>
 0003:008e36e0       _con_times                 00d376e0     <common>
 0003:008e36f0       _con_vislines              00d376f0     <common>
 0003:008e36f4       _con_linewidth             00d376f4     <common>
 0003:008e36f8       _con_notifylines           00d376f8     <common>
 0003:008e36fc       _con_current               00d376fc     <common>
 0003:008e3700       _con_backscroll            00d37700     <common>
 0003:008e3704       _con_initialized           00d37704     <common>
 0003:008e3708       _con_x                     00d37708     <common>
 0003:008e370c       _con_totallines            00d3770c     <common>
 0003:008e3710       _con_debuglog              00d37710     <common>
 0003:008e3714       _hStdin                    00d37714     <common>
 0003:008e3718       _hfileBuffer               00d37718     <common>
 0003:008e371c       _heventParentSend          00d3771c     <common>
 0003:008e3720       _hStdout                   00d37720     <common>
 0003:008e3724       _heventDone                00d37724     <common>
 0003:008e3728       _heventChildSend           00d37728     <common>
 0003:008e3740       _com_cachedir              00d37740     <common>
 0003:008e37c0       _hipnotic                  00d377c0     <common>
 0003:008e37c4       _LittleFloat               00d377c4     <common>
 0003:008e37c8       _proghack                  00d377c8     <common>
 0003:008e37cc       _BigFloat                  00d377cc     <common>
 0003:008e37d0       _com_filesize              00d377d0     <common>
 0003:008e37d4       _LittleShort               00d377d4     <common>
 0003:008e37d8       _loadcache                 00d377d8     <common>
 0003:008e37dc       _BigShort                  00d377dc     <common>
 0003:008e37e0       _com_argc                  00d377e0     <common>
 0003:008e37e4       _loadbuf                   00d377e4     <common>
 0003:008e37e8       _com_argv                  00d377e8     <common>
 0003:008e37ec       _BigLong                   00d377ec     <common>
 0003:008e37f0       _LittleLong                00d377f0     <common>
 0003:008e3800       _com_gamedir               00d37800     <common>
 0003:008e3880       _com_token                 00d37880     <common>
 0003:008e3c80       _com_searchpaths           00d37c80     <common>
 0003:008e3c84       _rogue                     00d37c84     <common>
 0003:008e3c88       _com_modified              00d37c88     <common>
 0003:008e3ca0       _com_cmdline               00d37ca0     <common>
 0003:008e3da0       _loadsize                  00d37da0     <common>
 0003:008e3da4       _bigendien                 00d37da4     <common>
 0003:008e3da8       _msg_readcount             00d37da8     <common>
 0003:008e3dac       _msg_badread               00d37dac     <common>
 0003:008e3dc0       _cmd_text                  00d37dc0     <common>
 0003:008e3dd4       _cmd_wait                  00d37dd4     <common>
 0003:008e3dd8       _cmd_source                00d37dd8     <common>
 0003:008e3ddc       _cmd_alias                 00d37ddc     <common>
 0003:008e3de0       _cl_sfx_r_exp3             00d37de0     <common>
 0003:008e3e00       _cl_beams                  00d37e00     <common>
 0003:008e4160       _cl_sfx_knighthit          00d38160     <common>
 0003:008e4164       _cl_sfx_ric1               00d38164     <common>
 0003:008e4168       _cl_sfx_ric3               00d38168     <common>
 0003:008e416c       _cl_sfx_ric2               00d3816c     <common>
 0003:008e4170       _num_temp_entities         00d38170     <common>
 0003:008e4174       _cl_sfx_wizhit             00d38174     <common>
 0003:008e4180       _cl_temp_entities          00d38180     <common>
 0003:008e6f80       _cl_sfx_tink1              00d3af80     <common>
 0003:008e6fa0       _bitcounts                 00d3afa0     <common>
 0003:008e6fe0       _cl_dlights                00d3afe0     <common>
 0003:008e73e0       _cl_entities               00d3b3e0     <common>
 0003:00902320       _cls                       00d56320     <common>
 0003:00902c40       _cl_lightstyle             00d56c40     <common>
 0003:00903d40       _cl_visedicts              00d57d40     <common>
 0003:00904140       _cl                        00d58140     <common>
 0003:00904ca0       _cl_numvisedicts           00d58ca0     <common>
 0003:00904cc0       _cl_static_entities        00d58cc0     <common>
 0003:0090a8c0       _cl_efrags                 00d5e8c0     <common>
 0003:0090d0c0       _in_lookdown               00d610c0     <common>
 0003:0090d0d0       _in_speed                  00d610d0     <common>
 0003:0090d0e0       _in_attack                 00d610e0     <common>
 0003:0090d0f0       _in_up                     00d610f0     <common>
 0003:0090d100       _in_use                    00d61100     <common>
 0003:0090d110       _in_down                   00d61110     <common>
 0003:0090d120       _in_mlook                  00d61120     <common>
 0003:0090d130       _in_forward                00d61130     <common>
 0003:0090d140       _in_left                   00d61140     <common>
 0003:0090d150       _in_right                  00d61150     <common>
 0003:0090d160       _in_moveleft               00d61160     <common>
 0003:0090d170       _in_lookup                 00d61170     <common>
 0003:0090d180       _in_jump                   00d61180     <common>
 0003:0090d190       _in_strafe                 00d61190     <common>
 0003:0090d1a0       _in_moveright              00d611a0     <common>
 0003:0090d1b0       _in_back                   00d611b0     <common>
 0003:0090d1bc       _in_impulse                00d611bc     <common>
 0003:0090d1c0       _in_klook                  00d611c0     <common>
 0003:0090d1d0       _chase_dest                00d611d0     <common>
 0003:0090d1dc       _wDeviceID                 00d611dc     <common>
 0003:0090d1e0       ___mbcodepage              00d611e0     <common>
 0003:0090d1f0       ___mbulinfo                00d611f0     <common>
 0003:0090d1fc       ___ismbcodepage            00d611fc     <common>
 0003:0090d200       __mbcasemap                00d61200     <common>
 0003:0090d300       __mbctype                  00d61300     <common>
 0003:0090d404       ___mblcid                  00d61404     <common>
 0003:0090d408       ___sbh_sizeHeaderList      00d61408     <common>
 0003:0090d40c       ___sbh_indGroupDefer       00d6140c     <common>
 0003:0090d410       ___sbh_pHeaderScan         00d61410     <common>
 0003:0090d414       ___sbh_pHeaderDefer        00d61414     <common>
 0003:0090d418       ___sbh_cntHeaderList       00d61418     <common>
 0003:0090d41c       ___sbh_pHeaderList         00d6141c     <common>
 0003:0090d420       __crtheap                  00d61420     <common>
 0003:0090d440       ___pioinfo                 00d61440     <common>
 0003:0090d540       __nhandle                  00d61540     <common>
 0003:0090d544       ___piob                    00d61544     <common>
 0003:0090d560       __bufin                    00d61560     <common>
 0003:0090e560       __nstream                  00d62560     <common>
 0003:0090e564       __acmdln                   00d62564     <common>
 0003:0090e568       ___env_initialized         00d62568     <common>
 0003:0090e56c       ___mbctype_initialized     00d6256c     <common>
 0003:0090e570       ___onexitend               00d62570     <common>
 0003:0090e574       ___onexitbegin             00d62574     <common>
 0004:00000000       __IMPORT_DESCRIPTOR_COMCTL32 00d63000     comctl32:COMCTL32.dll
 0004:00000014       __IMPORT_DESCRIPTOR_WINMM  00d63014     winmm:WINMM.dll
 0004:00000028       __IMPORT_DESCRIPTOR_WSOCK32 00d63028     wsock32:WSOCK32.dll
 0004:0000003c       __IMPORT_DESCRIPTOR_OPENGL32 00d6303c     opengl32:OPENGL32.dll
 0004:00000050       __IMPORT_DESCRIPTOR_KERNEL32 00d63050     kernel32:KERNEL32.dll
 0004:00000064       __IMPORT_DESCRIPTOR_USER32 00d63064     user32:USER32.dll
 0004:00000078       __IMPORT_DESCRIPTOR_GDI32  00d63078     gdi32:GDI32.dll
 0004:0000008c       __NULL_IMPORT_DESCRIPTOR   00d6308c     comctl32:COMCTL32.dll
 0004:0000039c       __imp__InitCommonControls@0 00d6339c     comctl32:COMCTL32.dll
 0004:000003a0       \177COMCTL32_NULL_THUNK_DATA 00d633a0     comctl32:COMCTL32.dll
 0004:000003a4       __imp__SwapBuffers@4       00d633a4     gdi32:GDI32.dll
 0004:000003a8       __imp__SetPixelFormat@12   00d633a8     gdi32:GDI32.dll
 0004:000003ac       __imp__ChoosePixelFormat@8 00d633ac     gdi32:GDI32.dll
 0004:000003b0       __imp__GetDeviceCaps@8     00d633b0     gdi32:GDI32.dll
 0004:000003b4       __imp__PatBlt@24           00d633b4     gdi32:GDI32.dll
 0004:000003b8       \177GDI32_NULL_THUNK_DATA  00d633b8     gdi32:GDI32.dll
 0004:000003bc       __imp__GetEnvironmentStringsW@0 00d633bc     kernel32:KERNEL32.dll
 0004:000003c0       __imp__GetEnvironmentStrings@0 00d633c0     kernel32:KERNEL32.dll
 0004:000003c4       __imp__FreeEnvironmentStringsW@4 00d633c4     kernel32:KERNEL32.dll
 0004:000003c8       __imp__FreeEnvironmentStringsA@4 00d633c8     kernel32:KERNEL32.dll
 0004:000003cc       __imp__GetModuleFileNameA@12 00d633cc     kernel32:KERNEL32.dll
 0004:000003d0       __imp__UnhandledExceptionFilter@4 00d633d0     kernel32:KERNEL32.dll
 0004:000003d4       __imp__RtlUnwind@16        00d633d4     kernel32:KERNEL32.dll
 0004:000003d8       __imp__HeapReAlloc@16      00d633d8     kernel32:KERNEL32.dll
 0004:000003dc       __imp__VirtualAlloc@16     00d633dc     kernel32:KERNEL32.dll
 0004:000003e0       __imp__VirtualFree@12      00d633e0     kernel32:KERNEL32.dll
 0004:000003e4       __imp__HeapCreate@12       00d633e4     kernel32:KERNEL32.dll
 0004:000003e8       __imp__HeapDestroy@4       00d633e8     kernel32:KERNEL32.dll
 0004:000003ec       __imp__RaiseException@16   00d633ec     kernel32:KERNEL32.dll
 0004:000003f0       __imp__LCMapStringW@24     00d633f0     kernel32:KERNEL32.dll
 0004:000003f4       __imp__LCMapStringA@24     00d633f4     kernel32:KERNEL32.dll
 0004:000003f8       __imp__WideCharToMultiByte@32 00d633f8     kernel32:KERNEL32.dll
 0004:000003fc       __imp__SetStdHandle@8      00d633fc     kernel32:KERNEL32.dll
 0004:00000400       __imp__GetStringTypeA@20   00d63400     kernel32:KERNEL32.dll
 0004:00000404       __imp__MultiByteToWideChar@24 00d63404     kernel32:KERNEL32.dll
 0004:00000408       __imp__SetFilePointer@16   00d63408     kernel32:KERNEL32.dll
 0004:0000040c       __imp__GetFileType@4       00d6340c     kernel32:KERNEL32.dll
 0004:00000410       __imp__SetHandleCount@4    00d63410     kernel32:KERNEL32.dll
 0004:00000414       __imp__ReadFile@20         00d63414     kernel32:KERNEL32.dll
 0004:00000418       __imp__FlushFileBuffers@4  00d63418     kernel32:KERNEL32.dll
 0004:0000041c       __imp__GetVersion@0        00d6341c     kernel32:KERNEL32.dll
 0004:00000420       __imp__GetCommandLineA@0   00d63420     kernel32:KERNEL32.dll
 0004:00000424       __imp__GetStartupInfoA@4   00d63424     kernel32:KERNEL32.dll
 0004:00000428       __imp__GetModuleHandleA@4  00d63428     kernel32:KERNEL32.dll
 0004:0000042c       __imp__CreateDirectoryA@8  00d6342c     kernel32:KERNEL32.dll
 0004:00000430       __imp__GetLastError@0      00d63430     kernel32:KERNEL32.dll
 0004:00000434       __imp__GetCurrentProcess@0 00d63434     kernel32:KERNEL32.dll
 0004:00000438       __imp__TerminateProcess@8  00d63438     kernel32:KERNEL32.dll
 0004:0000043c       __imp__ExitProcess@4       00d6343c     kernel32:KERNEL32.dll
 0004:00000440       __imp__HeapAlloc@12        00d63440     kernel32:KERNEL32.dll
 0004:00000444       __imp__HeapFree@12         00d63444     kernel32:KERNEL32.dll
 0004:00000448       __imp__CreateFileA@28      00d63448     kernel32:KERNEL32.dll
 0004:0000044c       __imp__GetCPInfo@8         00d6344c     kernel32:KERNEL32.dll
 0004:00000450       __imp__GetACP@0            00d63450     kernel32:KERNEL32.dll
 0004:00000454       __imp__GetOEMCP@0          00d63454     kernel32:KERNEL32.dll
 0004:00000458       __imp__SetEndOfFile@4      00d63458     kernel32:KERNEL32.dll
 0004:0000045c       __imp__GetStringTypeW@16   00d6345c     kernel32:KERNEL32.dll
 0004:00000460       __imp__GlobalMemoryStatus@4 00d63460     kernel32:KERNEL32.dll
 0004:00000464       __imp__GetCurrentDirectoryA@8 00d63464     kernel32:KERNEL32.dll
 0004:00000468       __imp__AllocConsole@0      00d63468     kernel32:KERNEL32.dll
 0004:0000046c       __imp__GetNumberOfConsoleInputEvents@8 00d6346c     kernel32:KERNEL32.dll
 0004:00000470       __imp__ReadConsoleInputA@16 00d63470     kernel32:KERNEL32.dll
 0004:00000474       __imp__QueryPerformanceCounter@4 00d63474     kernel32:KERNEL32.dll
 0004:00000478       __imp__FreeConsole@0       00d63478     kernel32:KERNEL32.dll
 0004:0000047c       __imp__WriteFile@20        00d6347c     kernel32:KERNEL32.dll
 0004:00000480       __imp__QueryPerformanceFrequency@4 00d63480     kernel32:KERNEL32.dll
 0004:00000484       __imp__GetVersionExA@4     00d63484     kernel32:KERNEL32.dll
 0004:00000488       __imp__VirtualProtect@16   00d63488     kernel32:KERNEL32.dll
 0004:0000048c       __imp__GlobalAlloc@8       00d6348c     kernel32:KERNEL32.dll
 0004:00000490       __imp__GlobalLock@4        00d63490     kernel32:KERNEL32.dll
 0004:00000494       __imp__GlobalUnlock@4      00d63494     kernel32:KERNEL32.dll
 0004:00000498       __imp__GlobalFree@4        00d63498     kernel32:KERNEL32.dll
 0004:0000049c       __imp__LoadLibraryA@4      00d6349c     kernel32:KERNEL32.dll
 0004:000004a0       __imp__GetProcAddress@8    00d634a0     kernel32:KERNEL32.dll
 0004:000004a4       __imp__Sleep@4             00d634a4     kernel32:KERNEL32.dll
 0004:000004a8       __imp__GetLargestConsoleWindowSize@4 00d634a8     kernel32:KERNEL32.dll
 0004:000004ac       __imp__SetConsoleWindowInfo@12 00d634ac     kernel32:KERNEL32.dll
 0004:000004b0       __imp__SetConsoleScreenBufferSize@8 00d634b0     kernel32:KERNEL32.dll
 0004:000004b4       __imp__WriteConsoleInputA@16 00d634b4     kernel32:KERNEL32.dll
 0004:000004b8       __imp__ReadConsoleOutputCharacterA@20 00d634b8     kernel32:KERNEL32.dll
 0004:000004bc       __imp__GetConsoleScreenBufferInfo@8 00d634bc     kernel32:KERNEL32.dll
 0004:000004c0       __imp__GetStdHandle@4      00d634c0     kernel32:KERNEL32.dll
 0004:000004c4       __imp__CloseHandle@4       00d634c4     kernel32:KERNEL32.dll
 0004:000004c8       __imp__CreateThread@24     00d634c8     kernel32:KERNEL32.dll
 0004:000004cc       __imp__CreateEventA@16     00d634cc     kernel32:KERNEL32.dll
 0004:000004d0       __imp__SetEvent@4          00d634d0     kernel32:KERNEL32.dll
 0004:000004d4       __imp__WaitForMultipleObjects@16 00d634d4     kernel32:KERNEL32.dll
 0004:000004d8       __imp__MapViewOfFile@20    00d634d8     kernel32:KERNEL32.dll
 0004:000004dc       __imp__UnmapViewOfFile@4   00d634dc     kernel32:KERNEL32.dll
 0004:000004e0       __imp__DeleteFileA@4       00d634e0     kernel32:KERNEL32.dll
 0004:000004e4       \177KERNEL32_NULL_THUNK_DATA 00d634e4     kernel32:KERNEL32.dll
 0004:000004e8       __imp__glColor3ubv@4       00d634e8     opengl32:OPENGL32.dll
 0004:000004ec       __imp__wglCreateContext@4  00d634ec     opengl32:OPENGL32.dll
 0004:000004f0       __imp__wglGetCurrentContext@0 00d634f0     opengl32:OPENGL32.dll
 0004:000004f4       __imp__wglGetCurrentDC@0   00d634f4     opengl32:OPENGL32.dll
 0004:000004f8       __imp__wglMakeCurrent@8    00d634f8     opengl32:OPENGL32.dll
 0004:000004fc       __imp__wglDeleteContext@4  00d634fc     opengl32:OPENGL32.dll
 0004:00000500       __imp__glClearColor@16     00d63500     opengl32:OPENGL32.dll
 0004:00000504       __imp__glAlphaFunc@8       00d63504     opengl32:OPENGL32.dll
 0004:00000508       __imp__glPolygonMode@8     00d63508     opengl32:OPENGL32.dll
 0004:0000050c       __imp__glGetString@4       00d6350c     opengl32:OPENGL32.dll
 0004:00000510       __imp__wglGetProcAddress@4 00d63510     opengl32:OPENGL32.dll
 0004:00000514       __imp__glTexSubImage2D@36  00d63514     opengl32:OPENGL32.dll
 0004:00000518       __imp__glReadBuffer@4      00d63518     opengl32:OPENGL32.dll
 0004:0000051c       __imp__glReadPixels@28     00d6351c     opengl32:OPENGL32.dll
 0004:00000520       __imp__glFinish@0          00d63520     opengl32:OPENGL32.dll
 0004:00000524       __imp__glLoadMatrixf@4     00d63524     opengl32:OPENGL32.dll
 0004:00000528       __imp__glClear@4           00d63528     opengl32:OPENGL32.dll
 0004:0000052c       __imp__glDepthFunc@4       00d6352c     opengl32:OPENGL32.dll
 0004:00000530       __imp__glCullFace@4        00d63530     opengl32:OPENGL32.dll
 0004:00000534       __imp__glGetFloatv@8       00d63534     opengl32:OPENGL32.dll
 0004:00000538       __imp__glFrustum@48        00d63538     opengl32:OPENGL32.dll
 0004:0000053c       __imp__glColor4fv@4        00d6353c     opengl32:OPENGL32.dll
 0004:00000540       __imp__glDepthRange@16     00d63540     opengl32:OPENGL32.dll
 0004:00000544       __imp__glPushMatrix@0      00d63544     opengl32:OPENGL32.dll
 0004:00000548       __imp__glTexParameterf@12  00d63548     opengl32:OPENGL32.dll
 0004:0000054c       __imp__glEnd@0             00d6354c     opengl32:OPENGL32.dll
 0004:00000550       __imp__glVertex2f@8        00d63550     opengl32:OPENGL32.dll
 0004:00000554       __imp__glTexCoord2f@8      00d63554     opengl32:OPENGL32.dll
 0004:00000558       __imp__glBegin@4           00d63558     opengl32:OPENGL32.dll
 0004:0000055c       __imp__glColor4f@16        00d6355c     opengl32:OPENGL32.dll
 0004:00000560       __imp__glEnable@4          00d63560     opengl32:OPENGL32.dll
 0004:00000564       __imp__glDisable@4         00d63564     opengl32:OPENGL32.dll
 0004:00000568       __imp__glColor3f@12        00d63568     opengl32:OPENGL32.dll
 0004:0000056c       __imp__glTexImage2D@36     00d6356c     opengl32:OPENGL32.dll
 0004:00000570       __imp__glDrawBuffer@4      00d63570     opengl32:OPENGL32.dll
 0004:00000574       __imp__glOrtho@48          00d63574     opengl32:OPENGL32.dll
 0004:00000578       __imp__glLoadIdentity@0    00d63578     opengl32:OPENGL32.dll
 0004:0000057c       __imp__glMatrixMode@4      00d6357c     opengl32:OPENGL32.dll
 0004:00000580       __imp__glViewport@16       00d63580     opengl32:OPENGL32.dll
 0004:00000584       __imp__glVertex3fv@4       00d63584     opengl32:OPENGL32.dll
 0004:00000588       __imp__glBlendFunc@8       00d63588     opengl32:OPENGL32.dll
 0004:0000058c       __imp__glShadeModel@4      00d6358c     opengl32:OPENGL32.dll
 0004:00000590       __imp__glDepthMask@4       00d63590     opengl32:OPENGL32.dll
 0004:00000594       __imp__glRotatef@16        00d63594     opengl32:OPENGL32.dll
 0004:00000598       __imp__glTranslatef@12     00d63598     opengl32:OPENGL32.dll
 0004:0000059c       __imp__glVertex3f@12       00d6359c     opengl32:OPENGL32.dll
 0004:000005a0       __imp__glPopMatrix@0       00d635a0     opengl32:OPENGL32.dll
 0004:000005a4       __imp__glHint@8            00d635a4     opengl32:OPENGL32.dll
 0004:000005a8       __imp__glTexEnvf@12        00d635a8     opengl32:OPENGL32.dll
 0004:000005ac       __imp__glScalef@12         00d635ac     opengl32:OPENGL32.dll
 0004:000005b0       \177OPENGL32_NULL_THUNK_DATA 00d635b0     opengl32:OPENGL32.dll
 0004:000005b4       __imp__ReleaseCapture@0    00d635b4     user32:USER32.dll
 0004:000005b8       __imp__RegisterWindowMessageA@4 00d635b8     user32:USER32.dll
 0004:000005bc       __imp__SystemParametersInfoA@16 00d635bc     user32:USER32.dll
 0004:000005c0       __imp__GetMessageA@16      00d635c0     user32:USER32.dll
 0004:000005c4       __imp__MsgWaitForMultipleObjects@20 00d635c4     user32:USER32.dll
 0004:000005c8       __imp__GetWindowRect@8     00d635c8     user32:USER32.dll
 0004:000005cc       __imp__CreateDialogParamA@20 00d635cc     user32:USER32.dll
 0004:000005d0       __imp__SetCursorPos@8      00d635d0     user32:USER32.dll
 0004:000005d4       __imp__SetCapture@4        00d635d4     user32:USER32.dll
 0004:000005d8       __imp__ShowCursor@4        00d635d8     user32:USER32.dll
 0004:000005dc       __imp__ClipCursor@4        00d635dc     user32:USER32.dll
 0004:000005e0       __imp__LoadIconA@8         00d635e0     user32:USER32.dll
 0004:000005e4       __imp__EnumDisplaySettingsA@12 00d635e4     user32:USER32.dll
 0004:000005e8       __imp__LoadCursorA@8       00d635e8     user32:USER32.dll
 0004:000005ec       __imp__RegisterClassA@4    00d635ec     user32:USER32.dll
 0004:000005f0       __imp__DestroyWindow@4     00d635f0     user32:USER32.dll
 0004:000005f4       __imp__PostQuitMessage@4   00d635f4     user32:USER32.dll
 0004:000005f8       __imp__DefWindowProcA@16   00d635f8     user32:USER32.dll
 0004:000005fc       __imp__MessageBoxA@16      00d635fc     user32:USER32.dll
 0004:00000600       __imp__SetForegroundWindow@4 00d63600     user32:USER32.dll
 0004:00000604       __imp__PeekMessageA@20     00d63604     user32:USER32.dll
 0004:00000608       __imp__TranslateMessage@4  00d63608     user32:USER32.dll
 0004:0000060c       __imp__DispatchMessageA@4  00d6360c     user32:USER32.dll
 0004:00000610       __imp__ChangeDisplaySettingsA@8 00d63610     user32:USER32.dll
 0004:00000614       __imp__AdjustWindowRectEx@16 00d63614     user32:USER32.dll
 0004:00000618       __imp__CreateWindowExA@48  00d63618     user32:USER32.dll
 0004:0000061c       __imp__ShowWindow@8        00d6361c     user32:USER32.dll
 0004:00000620       __imp__UpdateWindow@4      00d63620     user32:USER32.dll
 0004:00000624       __imp__GetDC@4             00d63624     user32:USER32.dll
 0004:00000628       __imp__ReleaseDC@8         00d63628     user32:USER32.dll
 0004:0000062c       __imp__SendMessageA@16     00d6362c     user32:USER32.dll
 0004:00000630       __imp__GetSystemMetrics@4  00d63630     user32:USER32.dll
 0004:00000634       __imp__SetWindowPos@28     00d63634     user32:USER32.dll
 0004:00000638       __imp__GetCursorPos@4      00d63638     user32:USER32.dll
 0004:0000063c       \177USER32_NULL_THUNK_DATA 00d6363c     user32:USER32.dll
 0004:00000640       __imp__mciSendCommandA@16  00d63640     winmm:WINMM.dll
 0004:00000644       __imp__joyGetDevCapsA@12   00d63644     winmm:WINMM.dll
 0004:00000648       __imp__joyGetPosEx@8       00d63648     winmm:WINMM.dll
 0004:0000064c       __imp__joyGetNumDevs@0     00d6364c     winmm:WINMM.dll
 0004:00000650       __imp__waveOutReset@4      00d63650     winmm:WINMM.dll
 0004:00000654       __imp__waveOutClose@4      00d63654     winmm:WINMM.dll
 0004:00000658       __imp__waveOutUnprepareHeader@12 00d63658     winmm:WINMM.dll
 0004:0000065c       __imp__waveOutPrepareHeader@12 00d6365c     winmm:WINMM.dll
 0004:00000660       __imp__waveOutOpen@24      00d63660     winmm:WINMM.dll
 0004:00000664       __imp__waveOutWrite@12     00d63664     winmm:WINMM.dll
 0004:00000668       \177WINMM_NULL_THUNK_DATA  00d63668     winmm:WINMM.dll
 0004:0000066c       __imp__inet_addr@4         00d6366c     wsock32:WSOCK32.dll
 0004:00000670       __imp__inet_ntoa@4         00d63670     wsock32:WSOCK32.dll
 0004:00000674       __imp__WSACancelBlockingCall@0 00d63674     wsock32:WSOCK32.dll
 0004:00000678       __imp__ntohl@4             00d63678     wsock32:WSOCK32.dll
 0004:0000067c       __imp__WSAUnhookBlockingHook@0 00d6367c     wsock32:WSOCK32.dll
 0004:00000680       __imp__WSASetBlockingHook@4 00d63680     wsock32:WSOCK32.dll
 0004:00000684       __imp__htons@4             00d63684     wsock32:WSOCK32.dll
 0004:00000688       __imp__bind@12             00d63688     wsock32:WSOCK32.dll
 0004:0000068c       __imp__ntohs@4             00d6368c     wsock32:WSOCK32.dll
 0004:00000690       __imp__htonl@4             00d63690     wsock32:WSOCK32.dll
 0004:00000694       \177WSOCK32_NULL_THUNK_DATA 00d63694     wsock32:WSOCK32.dll

 entry point at        0001:0004980b

 Static symbols

 0001:0002e3e2       _PartialIPAddress          0042f3e2 f   net_wins.obj
 0001:0002c317       _PrintSlistHeader          0042d317 f   net_main.obj
 0001:0002c340       _Slist_Send                0042d340 f   net_main.obj
 0001:0002c3d5       _Slist_Poll                0042d3d5 f   net_main.obj
 0001:0002c4a9       _PrintSlist                0042d4a9 f   net_main.obj
 0001:0002c554       _PrintSlistTrailer         0042d554 f   net_main.obj
 0001:0002d1df       _NET_Listen_f              0042e1df f   net_main.obj
 0001:0002d27f       _MaxPlayers_f              0042e27f f   net_main.obj
 0001:0002d379       _NET_Port_f                0042e379 f   net_main.obj
 0001:0002be90       _IntAlign                  0042ce90 f   net_loop.obj
 0001:00029d4a       _Test_Poll                 0042ad4a f   net_dgrm.obj
 0001:00029eeb       _Test2_Poll                0042aeeb f   net_dgrm.obj
 0001:0002a1c0       _Test_f                    0042b1c0 f   net_dgrm.obj
 0001:0002a42a       _Test2_f                   0042b42a f   net_dgrm.obj
 0001:0002a766       __Datagram_CheckNewConnections 0042b766 f   net_dgrm.obj
 0001:0002b1ea       __Datagram_SearchForHosts  0042c1ea f   net_dgrm.obj
 0001:0002b6a6       __Datagram_Connect         0042c6a6 f   net_dgrm.obj
 0001:0001ab32       _Check_Gamma               0041bb32 f   gl_vidnt.obj
 0001:00017edf       _SCR_CalcRefdef            00418edf f   gl_screen.obj
 0001:000001f8       _CDAudio_GetAudioDiskInfo  004011f8 f   cd_win.obj
 0001:000006b9       _CD_f                      004016b9 f   cd_win.obj
 0001:00000a58       _CDAudio_Eject             00401a58 f   cd_win.obj
 0001:00000a92       _CDAudio_CloseDoor         00401a92 f   cd_win.obj
 0001:00050fd9       _getSystemCP               00451fd9 f   LIBC:mbctype.obj
 0001:00051023       _CPtoLCID                  00452023 f   LIBC:mbctype.obj
 0001:00051056       _setSBCS                   00452056 f   LIBC:mbctype.obj
 0001:0005107f       _setSBUpLow                0045207f f   LIBC:mbctype.obj
 0001:00050e0f       _x_ismbbtype               00451e0f f   LIBC:ismbbyte.obj
 0001:0004fab4       label0                     00450ab4 f   LIBC:adj_fdiv.obj
 0001:0004faba       label1                     00450aba f   LIBC:adj_fdiv.obj
 0001:0004fabf       label2                     00450abf f   LIBC:adj_fdiv.obj
 0001:0004fac5       label3                     00450ac5 f   LIBC:adj_fdiv.obj
 0001:0004faca       label4                     00450aca f   LIBC:adj_fdiv.obj
 0001:0004fad0       label5                     00450ad0 f   LIBC:adj_fdiv.obj
 0001:0004fad6       label6                     00450ad6 f   LIBC:adj_fdiv.obj
 0001:0004fadc       label7                     00450adc f   LIBC:adj_fdiv.obj
 0001:0004fae2       label8                     00450ae2 f   LIBC:adj_fdiv.obj
 0001:0004fafe       label9                     00450afe f   LIBC:adj_fdiv.obj
 0001:0004fb03       label10                    00450b03 f   LIBC:adj_fdiv.obj
 0001:0004fb19       label11                    00450b19 f   LIBC:adj_fdiv.obj
 0001:0004fb1e       label12                    00450b1e f   LIBC:adj_fdiv.obj
 0001:0004fb3a       label13                    00450b3a f   LIBC:adj_fdiv.obj
 0001:0004fb4a       label14                    00450b4a f   LIBC:adj_fdiv.obj
 0001:0004fb5e       label15                    00450b5e f   LIBC:adj_fdiv.obj
 0001:0004fb6e       label16                    00450b6e f   LIBC:adj_fdiv.obj
 0001:0004fb8e       label17                    00450b8e f   LIBC:adj_fdiv.obj
 0001:0004fb93       label18                    00450b93 f   LIBC:adj_fdiv.obj
 0001:0004fbad       label19                    00450bad f   LIBC:adj_fdiv.obj
 0001:0004fbb2       label20                    00450bb2 f   LIBC:adj_fdiv.obj
 0001:0004fbd2       label21                    00450bd2 f   LIBC:adj_fdiv.obj
 0001:0004fbe6       label22                    00450be6 f   LIBC:adj_fdiv.obj
 0001:0004fbfe       label23                    00450bfe f   LIBC:adj_fdiv.obj
 0001:0004fc12       label24                    00450c12 f   LIBC:adj_fdiv.obj
 0001:0004fc32       label25                    00450c32 f   LIBC:adj_fdiv.obj
 0001:0004fc37       label26                    00450c37 f   LIBC:adj_fdiv.obj
 0001:0004fc51       label27                    00450c51 f   LIBC:adj_fdiv.obj
 0001:0004fc56       label28                    00450c56 f   LIBC:adj_fdiv.obj
 0001:0004fc76       label29                    00450c76 f   LIBC:adj_fdiv.obj
 0001:0004fc8a       label30                    00450c8a f   LIBC:adj_fdiv.obj
 0001:0004fca2       label31                    00450ca2 f   LIBC:adj_fdiv.obj
 0001:0004fcb6       label32                    00450cb6 f   LIBC:adj_fdiv.obj
 0001:0004fcd6       label33                    00450cd6 f   LIBC:adj_fdiv.obj
 0001:0004fcdb       label34                    00450cdb f   LIBC:adj_fdiv.obj
 0001:0004fcf5       label35                    00450cf5 f   LIBC:adj_fdiv.obj
 0001:0004fcfa       label36                    00450cfa f   LIBC:adj_fdiv.obj
 0001:0004fd1a       label37                    00450d1a f   LIBC:adj_fdiv.obj
 0001:0004fd2e       label38                    00450d2e f   LIBC:adj_fdiv.obj
 0001:0004fd46       label39                    00450d46 f   LIBC:adj_fdiv.obj
 0001:0004fd5a       label40                    00450d5a f   LIBC:adj_fdiv.obj
 0001:0004fd7a       label41                    00450d7a f   LIBC:adj_fdiv.obj
 0001:0004fd7f       label42                    00450d7f f   LIBC:adj_fdiv.obj
 0001:0004fd99       label43                    00450d99 f   LIBC:adj_fdiv.obj
 0001:0004fd9e       label44                    00450d9e f   LIBC:adj_fdiv.obj
 0001:0004fdbe       label45                    00450dbe f   LIBC:adj_fdiv.obj
 0001:0004fdd2       label46                    00450dd2 f   LIBC:adj_fdiv.obj
 0001:0004fdea       label47                    00450dea f   LIBC:adj_fdiv.obj
 0001:0004fdfe       label48                    00450dfe f   LIBC:adj_fdiv.obj
 0001:0004fe1e       label49                    00450e1e f   LIBC:adj_fdiv.obj
 0001:0004fe23       label50                    00450e23 f   LIBC:adj_fdiv.obj
 0001:0004fe3d       label51                    00450e3d f   LIBC:adj_fdiv.obj
 0001:0004fe42       label52                    00450e42 f   LIBC:adj_fdiv.obj
 0001:0004fe62       label53                    00450e62 f   LIBC:adj_fdiv.obj
 0001:0004fe76       label54                    00450e76 f   LIBC:adj_fdiv.obj
 0001:0004fe8e       label55                    00450e8e f   LIBC:adj_fdiv.obj
 0001:0004fea2       label56                    00450ea2 f   LIBC:adj_fdiv.obj
 0001:0004fec2       label57                    00450ec2 f   LIBC:adj_fdiv.obj
 0001:0004fec7       label58                    00450ec7 f   LIBC:adj_fdiv.obj
 0001:0004fee1       label59                    00450ee1 f   LIBC:adj_fdiv.obj
 0001:0004fee6       label60                    00450ee6 f   LIBC:adj_fdiv.obj
 0001:0004ff06       label61                    00450f06 f   LIBC:adj_fdiv.obj
 0001:0004ff1a       label62                    00450f1a f   LIBC:adj_fdiv.obj
 0001:0004ff32       label63                    00450f32 f   LIBC:adj_fdiv.obj
 0001:0004ef00       LeadUp1                    0044ff00 f   LIBC:memmove.obj
 0001:0004ef2c       LeadUp2                    0044ff2c f   LIBC:memmove.obj
 0001:0004ef50       LeadUp3                    0044ff50 f   LIBC:memmove.obj
 0001:0004efcf       UnwindUp0                  0044ffcf f   LIBC:memmove.obj
 0001:0004efbc       UnwindUp1                  0044ffbc f   LIBC:memmove.obj
 0001:0004efb4       UnwindUp2                  0044ffb4 f   LIBC:memmove.obj
 0001:0004efac       UnwindUp3                  0044ffac f   LIBC:memmove.obj
 0001:0004efa4       UnwindUp4                  0044ffa4 f   LIBC:memmove.obj
 0001:0004ef9c       UnwindUp5                  0044ff9c f   LIBC:memmove.obj
 0001:0004ef94       UnwindUp6                  0044ff94 f   LIBC:memmove.obj
 0001:0004ef8c       UnwindUp7                  0044ff8c f   LIBC:memmove.obj
 0001:0004efe8       TrailUp0                   0044ffe8 f   LIBC:memmove.obj
 0001:0004eff0       TrailUp1                   0044fff0 f   LIBC:memmove.obj
 0001:0004effc       TrailUp2                   0044fffc f   LIBC:memmove.obj
 0001:0004f010       TrailUp3                   00450010 f   LIBC:memmove.obj
 0001:0004f088       LeadDown1                  00450088 f   LIBC:memmove.obj
 0001:0004f0a8       LeadDown2                  004500a8 f   LIBC:memmove.obj
 0001:0004f0d0       LeadDown3                  004500d0 f   LIBC:memmove.obj
 0001:0004f124       UnwindDown7                00450124 f   LIBC:memmove.obj
 0001:0004f12c       UnwindDown6                0045012c f   LIBC:memmove.obj
 0001:0004f134       UnwindDown5                00450134 f   LIBC:memmove.obj
 0001:0004f13c       UnwindDown4                0045013c f   LIBC:memmove.obj
 0001:0004f144       UnwindDown3                00450144 f   LIBC:memmove.obj
 0001:0004f14c       UnwindDown2                0045014c f   LIBC:memmove.obj
 0001:0004f154       UnwindDown1                00450154 f   LIBC:memmove.obj
 0001:0004f167       UnwindDown0                00450167 f   LIBC:memmove.obj
 0001:0004f180       TrailDown0                 00450180 f   LIBC:memmove.obj
 0001:0004f188       TrailDown1                 00450188 f   LIBC:memmove.obj
 0001:0004f198       TrailDown2                 00450198 f   LIBC:memmove.obj
 0001:0004f1ac       TrailDown3                 004501ac f   LIBC:memmove.obj
 0001:0004e723       __abstract_cw              0044f723 f   LIBC:ieee87.obj
 0001:0004e7b5       __hw_cw                    0044f7b5 f   LIBC:ieee87.obj
 0001:0004e186       _parse_cmdline             0044f186 f   LIBC:stdargv.obj
 0001:0004df99       _xcptlookup                0044ef99 f   LIBC:winxfltr.obj
 0001:0004dcd4       __hextodec                 0044ecd4 f   LIBC:input.obj
 0001:0004dd0b       __inc                      0044ed0b f   LIBC:input.obj
 0001:0004dd25       __un_inc                   0044ed25 f   LIBC:input.obj
 0001:0004dd3c       __whiteout                 0044ed3c f   LIBC:input.obj
 0001:0004d174       _gu_return                 0044e174 f   LIBC:exsup.obj
 0001:0004d17c       __unwind_handler           0044e17c f   LIBC:exsup.obj
 0001:0004cdd1       fFEXP                      0044ddd1 f   LIBC:87tran.obj
 0001:0004cf11       _rtforexpinf               0044df11 f   LIBC:87tran.obj
 0001:0004c2e2       __get_fname                0044d2e2 f   LIBC:fpexcept.obj
 0001:0004bc54       _strncnt                   0044cc54 f   LIBC:a_map.obj
 0001:0004b56c       fFATN2                     0044c56c f   LIBC:87triga.obj
 0001:0004b5e2       _rtforatnby0               0044c5e2 f   LIBC:87triga.obj
 0001:0004b5c5       _rtforatn20                0044c5c5 f   LIBC:87triga.obj
 0001:0004b064       _write_char                0044c064 f   LIBC:output.obj
 0001:0004b099       _write_multi_char          0044c099 f   LIBC:output.obj
 0001:0004b0ca       _write_string              0044c0ca f   LIBC:output.obj
 0001:0004b102       _get_int_arg               0044c102 f   LIBC:output.obj
 0001:0004b10f       _get_int64_arg             0044c10f f   LIBC:output.obj
 0001:0004b11f       _get_short_arg             0044c11f f   LIBC:output.obj
 0001:00049d3e       __cftoe_g                  0044ad3e f   LIBC:cvt.obj
 0001:00049d65       __cftof_g                  0044ad65 f   LIBC:cvt.obj
 0001:00049dd9       __shift                    0044add9 f   LIBC:cvt.obj
 0001:00049926       _fast_error_exit           0044a926 f   LIBC:wincrt0.obj
 0001:0004972c       _doexit                    0044a72c f   LIBC:crt0dat.obj
 0001:000497c5       __initterm                 0044a7c5 f   LIBC:crt0dat.obj
 0001:000481d0       LeadUp1                    004491d0 f   LIBC:memcpy.obj
 0001:000481fc       LeadUp2                    004491fc f   LIBC:memcpy.obj
 0001:00048220       LeadUp3                    00449220 f   LIBC:memcpy.obj
 0001:0004829f       UnwindUp0                  0044929f f   LIBC:memcpy.obj
 0001:0004828c       UnwindUp1                  0044928c f   LIBC:memcpy.obj
 0001:00048284       UnwindUp2                  00449284 f   LIBC:memcpy.obj
 0001:0004827c       UnwindUp3                  0044927c f   LIBC:memcpy.obj
 0001:00048274       UnwindUp4                  00449274 f   LIBC:memcpy.obj
 0001:0004826c       UnwindUp5                  0044926c f   LIBC:memcpy.obj
 0001:00048264       UnwindUp6                  00449264 f   LIBC:memcpy.obj
 0001:0004825c       UnwindUp7                  0044925c f   LIBC:memcpy.obj
 0001:000482b8       TrailUp0                   004492b8 f   LIBC:memcpy.obj
 0001:000482c0       TrailUp1                   004492c0 f   LIBC:memcpy.obj
 0001:000482cc       TrailUp2                   004492cc f   LIBC:memcpy.obj
 0001:000482e0       TrailUp3                   004492e0 f   LIBC:memcpy.obj
 0001:00048358       LeadDown1                  00449358 f   LIBC:memcpy.obj
 0001:00048378       LeadDown2                  00449378 f   LIBC:memcpy.obj
 0001:000483a0       LeadDown3                  004493a0 f   LIBC:memcpy.obj
 0001:000483f4       UnwindDown7                004493f4 f   LIBC:memcpy.obj
 0001:000483fc       UnwindDown6                004493fc f   LIBC:memcpy.obj
 0001:00048404       UnwindDown5                00449404 f   LIBC:memcpy.obj
 0001:0004840c       UnwindDown4                0044940c f   LIBC:memcpy.obj
 0001:00048414       UnwindDown3                00449414 f   LIBC:memcpy.obj
 0001:0004841c       UnwindDown2                0044941c f   LIBC:memcpy.obj
 0001:00048424       UnwindDown1                00449424 f   LIBC:memcpy.obj
 0001:00048437       UnwindDown0                00449437 f   LIBC:memcpy.obj
 0001:00048450       TrailDown0                 00449450 f   LIBC:memcpy.obj
 0001:00048458       TrailDown1                 00449458 f   LIBC:memcpy.obj
 0001:00048468       TrailDown2                 00449468 f   LIBC:memcpy.obj
 0001:0004847c       TrailDown3                 0044947c f   LIBC:memcpy.obj
 0001:00047ad5       _flsall                    00448ad5 f   LIBC:fflush.obj

FIXUPS: 48d4e b ffffff52 32 19 fffffeab 1e 26 23 fffffe38 9 18 3c 32 34
FIXUPS: 48b1e fffffedc 8 8 19 ffffff24 12 26 10 5 35 10 fffffeaa 5 a 1285
FIXUPS: 49b3d fffffeb3 63 ffffff44 ffffff40 d 30 fffffe99 1d fffffe9c a
FIXUPS: 495a7 12 18 16 10 1c 31 10 fffff8ef 16 ffffffa6 ffffff04 41 37
FIXUPS: 48dc3 1d ffffff87 17 13 ffffffac 105c 2a 10 1b 2a 10 fffffeaf 12
FIXUPS: 49d13 10 1b 2a 10 fffffeb2 1e 2b 11 c 10 1f fffffe9d 1e 20 c 29
FIXUPS: 49be6 26 fffffe81 1e 20 c 29 643 10 b 3d 3b 14 60 7 14 7 fffffd89
FIXUPS: 4a008 14 1b ffffff8f c ffffff25 12 14 22 10 2c 2a 10 fffffe82 12
FIXUPS: 49e75 10 1d 2a 10 fffffeab bb2 fffffec6 fffffef4 f 11 11 73 11
FIXUPS: 4a6d3 fffffea7 c2 32 fffffeb3 24 8 fffffeee 13 ffffffc2 ffffffec
FIXUPS: 4a3c1 11 9 fffffef9 11 24 d fffffda8 14 1b 25 14 10 b13 16 2d 9
FIXUPS: 4acb4 27 45 12 24 23 2e 16 13 19 b fffffbcb ffffff96 ffffff11 c
FIXUPS: 4a87b 10 a 5 5 12 24 9 11 e e 9 1c cb4 38 1b fffffe81 19 12 58
FIXUPS: 4b549 fffffdf9 107 fffffe6e ffffffc3 ffffff6c 17 9 c 1e 12 ffffff5a
FIXUPS: 4b09a 5e 7 fffff8ce 1b ae 1b 3d 13 26 41 a4 1d f39 89 d 2e 25 d9
FIXUPS: 4bde3 3b 18 c 15 8 77 12 96 16 1c 27 17 1e 18 5e 32 37 fffff777
FIXUPS: 4b8aa 50 22 fffffe05 e5 fffffdaa b 1c83 40 9 d 14 8 fffff802 7c
FIXUPS: 4cbe2 fffffde5 10 fffffea4 3e fffffd63 3d 49 132 31 fffffdb3 1f
FIXUPS: 4c5de 10 ffffff1d fffffe56 e 82 fffffeeb ffffff91 fffff79c 3f 99
FIXUPS: 4bafa 2306 12 1d 5 55 3c 7 2f b2 15 fffff8f2 109 f fffffb75 ffffff0b
FIXUPS: 4d462 fffff849 1c 1c 26 b 31 b f 102 110 ca 1a 22 107 8c 17 171b
FIXUPS: 4e953 2b 6f 33 27 c 19 2b 11 29 17 49 3d 1e 23 17 60 2a 46 e a
FIXUPS: 4ece6 39 16 14 8 fffff41f ffffff2b 6a 13 29 f7a 17 ffffff14 22
FIXUPS: 4ee60 ffffff1d 24 fffff54d 25 8 b 12 53 f8 e a8 32 2c 23 1f 2c
FIXUPS: 4e63c 2d 17 2f f0 1a 30 15 2a a6 1f c92 8a 15 13 1a 14 d 11 12
FIXUPS: 4f6a5 19 fffffe11 d 11 2f 25 fffffe96 23 44 13 fffffcaf 35 f 10
FIXUPS: 4f16b fffffed7 19 14 14 12 f e ccb 1c ffffffbe 9 fffffc1e 17 5c
FIXUPS: 4fa00 151 12 16 c 1d 18 a c e 17 10 24 54 16 20 c 21 c fffffb99
FIXUPS: 4f8e2 fffffe03 17 20 fffffe4d 289e fffffc71 71 61 ec 4a 78 76 fffffb77
FIXUPS: 51885 fffffeb3 ffffef8c 181 59 23 3e 29 16 11 e fffffba4 19 ffffff78
FIXUPS: 504bd 10 fffffe24 ffffff2c 45 10 16 c ffffff34 2600 6 38 fffffd26
FIXUPS: 52549 4e 19 46 1d 26 9 d 9 fffffc82 14 18 18 96 6 a 6 1b 4b fffffa1d
FIXUPS: 51f59 3a 31 5 151 24 28 aa fffaf704 13 c 13 c 13 15 5 1d 1e 3c
FIXUPS: 1a34 19 3a 3a 1a 23 51100 a ffffff5c 11 fffffda4 47 41 10c fffffc39
FIXUPS: 5271e 18 28 b 1f 2f fffaee15 4d 5c e 1c d 14 11 14 24 15 1d 1f
FIXUPS: 1785 13 10 4e 30 9 21 c 13 13 16 10 9 9 16 10 9 9 16 22b d 1d 27
FIXUPS: 1bc1 76 15 65 fffff36d 55 4c 25 4d 2f 58 38 49 1b 3c 18 67 6e 9a
FIXUPS: 148c 11 8 1a 70 12 11 14 23 b05 11 21 15 9 16 13 1a 12 e 9 14 14
FIXUPS: 2186 1b 25 34 f d 7 10 14 14 14 16 88 c0 1a f a fffff71f d 14dc
FIXUPS: 3014 12 12 12 12 12 12 12 ffffec83 2f 2e 45 20 f 99 51 49 1e 11
FIXUPS: 1f68 38 17 28 f f 8 b 21 21 1f 14 cb6 6d 12 42 12 8 18 12 12 12
FIXUPS: 2e76 12 12 12 12 12 12 12 12 12 12 12 12 12 12 12 12 12 12 12 12
FIXUPS: 2ff0 fffff7ed 12 12 f 9 128 28 1e 1a 16 28 1c 10 5b 8e d 1a 1f
FIXUPS: 2b59 1f 1f 1f 2c 1f 96 1c 3e 10 a e a e fffff85a 12 12 12 27 f
FIXUPS: 2609 12 12 12 12 12 12 12 12 12 12 12 12 12 12 12 12 12 12 12 12
FIXUPS: 2783 12 12 12 12 1958 5 a d d d d d d d d d d d d d d d d d d 12
FIXUPS: 4240 12 12 12 12 ffffe1a1 19 56 34 19 1759 53 19 8 49 40 3f 2e
FIXUPS: 3df3 2d 2d 2d 2d c 6c 2d 93 13 1c 2c 8 5 2c c c 16 1b 11 16 12
FIXUPS: 4102 19 fffff277 14 e f e f e e f 19 14 11 12 8 7 30 44 30 f 5e
FIXUPS: 3594 71 5d 5e 27 177 49 2b 16 f9 57 1e6 1ce3 6 11 ffffd796 11 d
FIXUPS: 30e0 14 14 14 14 14 6c 11 20 a d f 13 d f 1d 2d 10 23 9 1b 11 30
FIXUPS: 3328 44 12 2342 5 18 8 1c d a c 9 d a a 13 7 a 7 d 22 11 30 1d
FIXUPS: 580e 14 a a 2e 12 1d 26 14 6 1a fffffbda c d 19 12 8 b d 6 d 6
FIXUPS: 5551 a 2c 16 f 13 8 12 15 19 a 16 d 5 18 8 18 d 5 18 8 fffff8fd
FIXUPS: 4fa5 1b 1d 24 7 24 28 1f 37 43 54 55 61 2d ab 2a e 8 8 25 29 1b
FIXUPS: 5392 20 8 2e 39 f 33 2c 28 fffff4e4 4f 12 2c 39 32 45 14 71 26
FIXUPS: 4ba6 23 23 25 dd b b b 23 f 25 27 6a 38 2d 12 95 22 25 11 25 5
FIXUPS: 45ea d a 13 d 13 14 1a 22 1f c 16 1a 22 1f c 43 3b d 7 3c 15 7
FIXUPS: 4831 5 2c f 22 a c 93 16 1a51 1f 52 ffffdead 51 12 1b 1d 8 2c 20
FIXUPS: 43e9 14 49 8 37 f a f 37 8 2b f 14 d 16 a 8 5 22 d 28 198c 14 9
FIXUPS: 5f88 9 14 9 14 9 d 8 8 c d 8 8 c d 8 8 8 8 14 a 64 f 83 182 14
FIXUPS: 632f 1a 14 fffff940 15 8 29 a 2a 29 22 d 8 8 15 8 29 a 2a 29 22
FIXUPS: 5e51 8 8 15 d 8 8 c a 64 d 8 8 c 114b 1a e d ffffe903 12 12 12
FIXUPS: 5a01 12 12 15 8 8 8 8 8 8 146 12 22 8 8 15 21 d 8 8 18 21 d 8 109c
FIXUPS: 6d3d 28 32 c 18 2d 15 e 5b 25 3d 2e 8 35 3c 13 c b e 1a e 22 f
FIXUPS: 7009 e e 12 8 a b 14 fffff91d 22 e e f 14 c 13 18 f 33 11 f 12
FIXUPS: 6ac2 13 14 29 f 26 10 1c 16 f 1f 12 12 12 12 12 6b 94 fffff7e0
FIXUPS: 6514 19 d 15 1b c d3 6b 11 2c f 4e 26 50 1f 11 a8 11 2f c c 12
FIXUPS: 6915 a a 9 13 e c e c 2932 1e 54 3f 18 f 50 5e 1e 1d 9 d 18 9 d
FIXUPS: 94c8 9 d 4e 9 d 98 20 9 1c 32 1e 29 ffffce05 12 21 e 2937 1a 25
FIXUPS: 8e7c 1d 17 11 11 c 8 15 13 1b 25 1a 10 21 35 50 2d 19 1a c 40 75
FIXUPS: 91ab 13 45 21 d 19 55 fffff69d f 26 19 25 b3 20 46 16 37 49 12
FIXUPS: 8b95 c 32 11 2b 1f f 27 13 11 13 27 11 22 40 17 52 21 20 19 fffff538
FIXUPS: 8350 f 67 14 12 17 117 7c 25 cc d 12 8 5 20 5c 4f 13 2c f 1d 16
FIXUPS: 8813 c 43 1c 10 12 c 50 1d fffff0ac 70 20 e 14 16 a 10 1a 21f 4d
FIXUPS: 7d4b 34 63 1c 17 c 40 9 12 34 9 1d c 11a 6c 25 21 45 1d8 2f 20
FIXUPS: a8d3 d d 1c 8 5 5 25 ffffedd9 37 2f 6f 16 35 30 16 16 11 9e 8f
FIXUPS: 9a00 31 89 36 45 ffffd830 4f 18 15e 426 21 21 2730 55 31 d1 d9
FIXUPS: a30f 10 12 c 14 20 1e 27 9 25 2d 1b 35 1e 30 31 4d ae 109 4b 30
FIXUPS: a77e 1b 3e c7 15 14 371 19 f 2c 9 15 1c 11 f 4d fffff038 11 e 23
FIXUPS: 9e21 57 7d 15 7b 39 1b 11 2b f 12 1b 12 a d 12 12 12 2d86 96 2c
FIXUPS: cf17 54 27 47 34 1c 41 ffffd97e 21 20 14 2c 3d 25 1a 18 12 c c
FIXUPS: ab40 f 38 24 10 16 17 13 17 1a b5f fa 32 43 127 2e 120 14 14 b
FIXUPS: bde0 30 30 35a 34 138 54b 15 25 1e 1c 92 23 5c 181 15 25 1e 1b
FIXUPS: cc44 23 5d ffffe4dc 11 25 2c e8 48 14 27 16 1b 6c 4e d d 15 18
FIXUPS: b4b5 12 d 5f d d 16 c 22 15 14 38 82 54 41 12 2242 e 11 10 1b 15
FIXUPS: d9d9 1d c 16 8 1a 14 1e 15 1d 1c c 20 2f 1e ffffd381 3f 22 22 42
FIXUPS: b0ae 77 2a 1f c 1a 58d7 3c de 1a4 27 6b 8 24 2b c 4f 13 8f 1f 4a
FIXUPS: 10fa8 59 55 48 31 114 6f 23 26 4b ffffc226 25 bb 1e 2df 55 d 2497
FIXUPS: fdf1 f f f f f f 8 119 3e c 28 35 19a 432 5f 11 33 1b 2a f4 17
FIXUPS: 10802 20 28 8d 36 2f a4 36 20 ffffe700 52 37 13 3d 26 1ab 3f 26
FIXUPS: f657 20 1d0 129 1f 72 5e 20 97 28 12c 1a 21 1c 1e 4d 4d f f f f
FIXUPS: fdc4 f ffffe605 60 a0 44 87 83 33 34 33 34 33 3d 26 cd 20 18c 24
FIXUPS: eae2 26 92 12 da 1dd 8 1f 8 61 44 26 11d 7f 1f ffffeab1 17 17 1c
FIXUPS: dc2c 32 16d 6e 3f 2c 10 30 26 31 33 20 18 52 12 12 17 13 70 f8
FIXUPS: e1d8 29 63 13 10 31 77 10 5b2b 5 5 5 5 5 18 21 b ffffd7fc 152 31
FIXUPS: 11924 2a e5 bb 2e 97 17 a3 ec 71 f0 2d 15b 5c fffff341 ec 3a 19
FIXUPS: 115d3 ca 1d52 2f 31 7f 36 8 48 20 15 8 42 1b9 182 5 5 5 5 5 5 5
FIXUPS: 13936 5 183 60 58 14 34 a1 5 106 a0 21 ffffe62e 2d1 57 19 93 7c
FIXUPS: 12983 df 15 2f 47 19 1d 16 1b f 11 b1 28 63 6f 72 3a b4 11 57 b3
FIXUPS: 1305f 24 81 5d 25f 1523 38 3c 11 1b 15 27 1c5 2ae 5d 5 6f 2f 4d
FIXUPS: 14fb7 d 2b 13 ffffd0f0 c7 6e 66 3e 39 c 3e 1b 32 1b 35 1b 38 20ca
FIXUPS: 14515 d d d d d d d d d d d d 18 d d d d d d d d d d 8 5 28 5 174
FIXUPS: 1485a 59 3471 1b 108 52 2a 7c 91 ffffbf21 168 15d 7f 8 3b 26 8
FIXUPS: 142e1 26 8 3b 26 8 3b 30 8 3b 30 8 3b 28 16 12 12 2876 11b 22 cd
FIXUPS: 16f89 d 43 6c c1 18b 1e 23 6a 14 8 5 11 91 18 1e6 45 3e0 57 1c
FIXUPS: 17ac0 28 11e 59 1e 56 1b 1b ffffe0a9 1d 74 29 31 29 39 74 29 31
FIXUPS: 15ff6 18d cb 105 17 12 19 24 11 236 25f 104 c 7f 1d 83 14 7b 2c
FIXUPS: 16b90 13a 32 ffffea49 10 f 1d 12 151 12 72 8d 12 c 1e c 1a 1d 19
FIXUPS: 15aa7 1d 1c 28 10 f 1d 12 14b 29 31 29 44 12 c 15 30c5 42 8 5 5
FIXUPS: 18eb9 5 5 5 5 5 5 2c 22 25 25 25 e1 42 a6 ffffbf84 11a 43 89 1a6
FIXUPS: 155e6 4c 40 1c 2d 25 3d 3255 1e 2d 5 48 2e 87 88 f f 2a 4c 18 2f
FIXUPS: 18c58 2d 3c 2a 4f 3a 61 5 5 5 5 e 5 5 1d 5 1c 1c fffff4d6 d d d
FIXUPS: 18365 12 12 12 d 12 12 53 6d 4a 33 2f 20 2f 12 154 5d 6 26 19 57
FIXUPS: 187f5 1c 21 13 ff c 11 3260 6d 5a 27 1a 21 12 3d f 98 57 1f 42
FIXUPS: 1beac 14 14 23 8 ffffc0f3 7c 43 90 c6 3b 23 1a 36 2c 1c d d d 315b
FIXUPS: 1b49e 11 13 33 11 13 13 e1 cf 15 13 1bc 17 27 56 28 77 c 12 21
FIXUPS: 1ba59 25 8 13 c 14 23 17 4e 2b 21 fffff3e4 12f 43 11 16 115 d d
FIXUPS: 1b246 d d d d d d d d 12 12 12 12 29 24 d 37 3e 17 11 13 17 44
FIXUPS: 1b46c fffff21e 36 d9 2d 36 34 22 24 14 1a e 21 16 12 9 21 e 1b
FIXUPS: 1a986 f 18 83 17 11 13 34 11 13 54 17d d a8 fffff142 19 5 e 283
FIXUPS: 1a1e6 ab 3a a 5 32 23 1e 5 64 5 14 5 40 5 11f 10 9 13 9 55 27 f
FIXUPS: 1a609 f 33 37 fffff21a 18 20 64 15 e c 80 31 12 29 25 2a 28 31
FIXUPS: 19b0d 75 1f 1a 11 11 52 24 24 23 16 24 16 5 15c 5 36 2b4c 1a 1a
FIXUPS: 1ca23 1d b 1a 34 1c 1a 34 21 131 10e ffffc5e3 2a 19d 121 166 1b
FIXUPS: 197ff b 5 7 5 9 20 b 5 c 1e 5 47e1 5 5 5 5 5 5 5 a f 8 19 1d 1e
FIXUPS: 1e101 5 5 5 e ffffdedb 1e 7a 3e5 13 1e 2a3 91 35 101 7f b 1a 1447
FIXUPS: 1de40 18 17 1b 1f 3a 4c 2d 8 5 5 5 9 e 8 a 8 5 5 5 5 5 5 a 1f 8
FIXUPS: 1e00a 1b d 1b f fffff9cb b 18 28 8 1b 8 2a 8 1d 1a 23 38 d c 8
FIXUPS: 1dbcb 76 17 1e 12 16 15 16 16 11 46 c 19 45 1a 21 fffff8f5 3b e
FIXUPS: 1d733 4f 16 1e 14 8 5 14 1e 14 f0 14 22 5 5 20 5 14 11 9 11 5 5
FIXUPS: 1d9c0 e 5 e e 20 fffff7d6 c 30 1e 18 30 84 25 35 1e 18 25 18 1b
FIXUPS: 1d448 25 11 92 23 14 11 23 11 11 23 11 38 5 68 1f 12 13 fffff84d
FIXUPS: 1cf0f 20 1c 36 2a 1f 23 71 20 11 f a d d d d d d d d d d d d d
FIXUPS: 1d15e 8 46 9 16 e 39d4 12 12 12 12 12 12 12 12 12 12 12 12 12 12
FIXUPS: 20cbb 12 12 12 12 ffffc0f2 1e 13 1d 11 7 c 20 12 20 1e 13 39d9
FIXUPS: 208cd 12 16 53 a 29 d 18 18 2b 19 2f 36 5 20 5 14 12 12 12 12 12
FIXUPS: 20b0b 12 12 12 12 12 12 12 12 fffff66d 9 69 29 35 33 32 40 42 41
FIXUPS: 2046a 5a 6a 6e 68 d7 20 18 14 14 9 13 e 1d 19 16 11 9 3c 36 12
FIXUPS: 20865 fffff583 14 14 13 10 1f 17 38 16 18 14 13 2b 3e 3e 15 9 e
FIXUPS: 1ffd2 e a1 16 60 a 6 32 9 43 13 a 24 35 fffff84d c bc 8 2e 15 11
FIXUPS: 1fb80 1f 49 15 1c 13 16 1c 13 16 1c 31 16 1c 16 14 13 10 14 13
FIXUPS: 1fd8e 10 13 14 14 fffff8d7 f e d d c 9 15 9 d 9 58 11 3b 21 1a
FIXUPS: 1f827 24 3a 16 22 38 21 f 14 1b 1a 21 14 14 2b 1d fffff8f0 1a 1e
FIXUPS: 1f334 39 a 17 20 2a 1c c 16 1e 11 a4 1f 11 f 19 a 1e 11 8 20 14
FIXUPS: 1f5cc 1e 11 58 13 1f 1b fffff7fe 16 58 f c 2a 56 53 29 28 11 18
FIXUPS: 1f085 26 22 1c 3a 59 8 d 15 d c d 22 1a 11 2d 1b 22 19 32 fffff8bc
FIXUPS: 1eba4 16 1f 41 13 e 29 d c e d 14 13 f 19 1a 14 14 14 1c 20 18
FIXUPS: 1eda7 20 43 1d 14 19 1b 1b 8 fffff9b5 c f 2a 5 7 d c 8 37 12 1e
FIXUPS: 1e92c 14 69 1b 1b d f 14 9 11 6c 11 1a 14 14 14 16 18 c 15 fffff9aa
FIXUPS: 1e50b 5a 1f 19 f 96 b 2f 7 12 1e e e 12 14 14 d c 26 1a e e 12
FIXUPS: 1e7a1 12 f 21 a 7 d c 3834 1a b2 68 1a 10 43 6f 40 83 64 1a ffffbdb4
FIXUPS: 1e14d 7 8 26 1f d2 70 4e 39 25 11 f 19 3c 27 13 f 18 67 3144 8b
FIXUPS: 216ba 3b 16 74 117 c ba 2b 3d 4a 1b 32 53 a8 4c 17 e 26 25 25 26
FIXUPS: 21c82 ee 4f d1 3c 26 6e 30 ab fffff10b 29 41 11 d d d d d d d d
FIXUPS: 21236 d d d d d d d d d d 12 12 18 5 a 5 be 3c 1d0 1a05 50 e a
FIXUPS: 2304b 4c f 53 f 32 87 f e d 4e e e f ffffdbdf 95 71 3c 63 33 34
FIXUPS: 21081 1e 20 c 18 f 39 18ca 1a 12 13 26 f c 9 13 e 13 41 17 19 f
FIXUPS: 22b3b 13 e 2d e c e 3d c 10 15 58 12 269 12 12 b3 d6f 45 4d4 24
FIXUPS: 24280 17 8 18 b 1d 8 1a 41 21 2a ffffe080 d 1d 47 24 1f 25 c f8
FIXUPS: 22600 ac 18 14f f d d 10c 773b e e e e e e 60 1f ffff9272 29 37
FIXUPS: 23434 39 14 66 46 30 20 20 22 1d 1a 78 25 2ee 7d 14 1f 14 20 14
FIXUPS: 29eb8 7 7 7 7 7 7 7 7 7 7 7 7 7 7 7 7 13 12 5 5 7a 11 11 11 11
FIXUPS: 2a026 11 11 11 e e fffff9fb 75 2d 19 19 1c 1f 3b a f 39 34 4f 9
FIXUPS: 29d40 12 12 12 12 12 12 12 12 12 12 12 51 8 5 5 7 41 fffff6c5 42
FIXUPS: 295c2 20 a 12 23 d 13 9 8 30 9 35 9 2c 9 c de 12 21 1c 13 11 3b
FIXUPS: 298a6 23 f7 25 29 20 21 fffff46b 29 21 11 35 2f 3a 2f 2e 2f 14
FIXUPS: 29072 42 1f 16 16 16 e9 38 1f 29 1f 22 25 28 22 25 28 22 25 171
FIXUPS: 29542 fffff634 d 21 13 14 11 14 10 11 27 16 11 17 69 10 3a 11 27
FIXUPS: 28d83 22 16 11 27 10 b 10 11 27 10 b 10 11 fffff7ea 13 1d 1b 1b
FIXUPS: 286fd 14 21 1d 18 10 1d 18 10 21 3d f 34 47 17 a 45 9 20 11 1d
FIXUPS: 28972 30 43 5d 38 ef fffff581 1a 14 21 3d f 34 59 61 1e 18 11 1d
FIXUPS: 282e8 1d 11 33 35 35 147 26 d d 29 47 f 1c 1f 18 18 1d 1a fffff5e1
FIXUPS: 27c4a 47 9 f 18 11 2d 183 d d 29 2c 1a 18 19 1e 1d 1b 10 18 19
FIXUPS: 27ff1 1d 1b 10 18 19 1e 1d 1b 10 fffff5f9 13 14 15 17 1b 13 15
FIXUPS: 27777 1b 1b 15 21 21 1a 19 23 1b 1b 1b 14 21 1d 1f 10 21 3d f 34
FIXUPS: 27a0f c3 10d fffff549 127 7b 94 17 11 11 11 11 11 11 11 11 11 11
FIXUPS: 27430 11 11 11 14 14 14 14 14 14 14 120 d d 29 47 f fffff5cf 21
FIXUPS: 26cb2 13 42 13 1a 1c e 18 c 27 c 17 2b 16 1f 20 31 12 c 45 f 32
FIXUPS: 26f5e d 1c 19 16 127 9 d fffff696 11 36 11 36 11 e d 11 e d 1d
FIXUPS: 268a9 e 10 14 1f 3d 35 11 c a 9 12 31 2e c 162 4e 39 47 15 fffff74d
FIXUPS: 263d5 12 14 12 1e 3c 39 39 7a 33 1d 1f 6 22 17 15 d d 21 11 11
FIXUPS: 26684 11 28 11 28 11 28 11 1c 11 fffff5fd 1f 24 1f 12 15 1f 12
FIXUPS: 25e39 1f 15 1c 2a 21 21 21 14 1c 9 17 3d f 36 52 7 7 7 148 85 64
FIXUPS: 262e3 64 fffff4c2 1d 1f 10 1d 1f 10 3d f 34 42 4e 72 16 9 14 16
FIXUPS: 25aa1 9 12 18 11 1d 11 2d 35 164 15 d d 21 1d fffff6d7 31 3d f
FIXUPS: 254ce 6d 22 7 be 14 e 1f 22 d d 21 11 13 14 11 13 14 11 11 13 14
FIXUPS: 25786 16 d 1e 13 14 fffff738 12 21 39 16 1b 17 21 39 16 1b 3b f
FIXUPS: 250e0 11 9 f 2f e8 2a 9 f 31 e5 d d 21 d d 14 1c 9 fffff623 7 7
FIXUPS: 24a3e 7 d4 d d 21 d d 14 1c 9 17 3d f 34 63 26 d d a 7 c9 2b 14
FIXUPS: 24e1a 18 1e 5b 32 fffff75b f 1a 26 17 d 39 17 f 1a 2a 17 d 3a f
FIXUPS: 247d5 2b 26 7 52 d d 21 d d 14 1c 9 17 78 f 31 7f44 8 5 23 11 23
FIXUPS: 2c995 d 11 c 13 26 8 33 11 31 8 3f 11 1d ffff78d6 2b 3a 3d 29 54
FIXUPS: 24500 55 64 21 17 d 7cc6 84 19 38 15 7d 13 8 13 8 11 11 23 26 22
FIXUPS: 2c509 4f 4c 1d ca 6b 51 8 37 f f 12 f 57 7b 1a 49 fffff418 3c f
FIXUPS: 2bd6f 12 57 94 f 12 40 59 13 14 17 f 12 12 54 30 48 63 d f 12 3d
FIXUPS: 2c185 5a 46 f f 12 f fffff697 13 f 59 19 75 f 12 11 17 17 17 b
FIXUPS: 2ba9d b 1a 57 19 16 4c f 12 19 14 57 21 6 13 13 f 12 12 fffff4fa
FIXUPS: 2b1de 50 56 f5 f f 11 60 17 22 50 47 cc f f 12 5a 17 109 42 47
FIXUPS: 2b7f1 3d 17 6 18 f 12 3d 14 12 fffff4e1 39 11 8 8 a 8 8 8 8 a 33
FIXUPS: 2aebb 97 1a 3a 11 d 18 d 1b d f f 14 5d 17 f 49 d 73 12 fffff7ac
FIXUPS: 2a98c d8 20 16 3b 34 1e 14 17 d e 19 14 14 13 14 14 13 14 14 13
FIXUPS: 2ac4b 9 29 27 32 9 3b 9 1c 6f 21aa 18 d4 18 ffffd13d 43 33 a f
FIXUPS: 2a232 34 9 1a 9 18 9 c 9 36 9f 106 f2 84 81 89 55 d3 47 25 16 37
FIXUPS: 2a93e 3a55 c 9 1f 2a d 10 23 76 e 55 c c 41 5c ffffe5c7 16 16 12
FIXUPS: 2cbf8 16 26 18 21 3a 18 1e 111 1b f 4e 7a 116a d d d d d d d d
FIXUPS: 2e0bf d 12 12 12 12 a3 1d f 1c c 9 70 15 1b f 9 35 1c 1c 21 14
FIXUPS: 2e37e fffff583 10 4e b6 1c 54 2f 10 8a 2f 10 8a 2d 6a 90 68 6a
FIXUPS: 2de34 14 2c 25 1b 2d 25 1b 16 16 2c 14 19 41 2e fffff2c4 14 17
FIXUPS: 2d320 d 7b 24 7a 5 27 13 8e 29 2a f 18 31 4e 3e e 32 3f 88 8 5
FIXUPS: 2d763 f b2 1a 54 24 21 1c78 2c 13 14 6b 14 fffff08a 1c 1b 1f 47
FIXUPS: 2e75c e 18 1c 8 41 14 8 3f 14 8 42 11 9 26 8 ffffe80c 88 101 45
FIXUPS: 2d2ca 1be2 10 20 e 3c b 1b 1c 69 13 12 e 4c f3 8 9 16 1e 56 10
FIXUPS: 2f233 34 30 10 27 2e 46 10 d 30 32 47 c2f 25 10 23 10 1e 4f 21
FIXUPS: 3016a 14 ffffe789 18 7c 10 18 29 51 2e 1a2 15 44 3b 38 b2 d 38
FIXUPS: 2edf8 1d f 1e a 1b a63 e 42 1b 1c c0 10 d 13 2e 8e 9e 23 50 58
FIXUPS: 2fd03 21 2e 3d 3d 3d 3d 3d 3d 3d 3d 3a 2b d 34 34 d 249d 28 17
FIXUPS: 3250b 11 b 11 b 11 b 33 1b e 28 21 8e 9 14 ffffcf90 55 7a b2 a
FIXUPS: 2f7e5 40 14 10 19 f e f 1c 2595 27 1f3 6b cd 12 79 cb 23 3d 21
FIXUPS: 3239b 29 6 6 15 6 6 15 6 6 15 6 6 19 6 19 6 1c 6 1c 9 fffff2b5
FIXUPS: 317a1 2e 4e 15 20 2e 43 23 15 f 37 9 41 3a 17 33 a3 5c 11 4a 7e
FIXUPS: 31bfa 13 35 1f 29 24 2e 2f 30 42 fffff10a 3c 37 16b 40 5a 16 26
FIXUPS: 3116f 2b 9d ac 21 45 2d 25 44 ef 50 e 1b 18 10 1d 35 4e 22 37 21
FIXUPS: 316bd 2b 38 fffff145 21 2a 13 4c c3 71 14 b3 14 45 1d 14 55 5c
FIXUPS: 30c4e e 7a 21 14 2f 13 11 b 11 b 2c 28 2b 36 1d 1c fffff361 1b
FIXUPS: 30213 1d d 14 24 1d c d 3d 5f 49 77 14 14 16 202 49 68 21 29 29
FIXUPS: 30785 12 14 21 d 21 2a 13 21 3443 1c 16 c c 31 16 3c d 1b 1f 36
FIXUPS: 33e45 1b 36a a8 12 12 12 d d d d d d d d d d d 27 4e fffff500 7a
FIXUPS: 3393f 27 12 16 22 16 14 f 3b 16 19 27 1d 1f 19 18 11 56 2c 10 d
FIXUPS: 33ba7 27 12 2a 20 20 12 27 c fffff6c8 82 11 11 11 11 1b 93 1e 12
FIXUPS: 33511 23 27 11 c 16 19 c 1a 1c 11 1b 12 f8 1f 20 80 40 9 1f 1a
FIXUPS: 3388c fffff669 14 1b 1f 24 d 26 14 24 11 e 4b 86 c 21 17 e 20 19
FIXUPS: 331a0 8a 15 12 16 13 9 19 29 14 9 1b e fffff6cd 61 4f 23 f 33 74
FIXUPS: 32b79 13 36 13 21 17 22 37 14 18 70 18 13 36 13 21 17 1f 37 18
FIXUPS: 32e62 1f 17 2a d 183d 11 17 54 27 f3 30 af d 36 7b 31 188 c 1c
FIXUPS: 34c2c 2e6 fd 116 103 3d 1d 5b 80 ffffd37c 3e 43 1d 1b f 16 1c2
FIXUPS: 36774 4d 81 3e 16 164 142 5a 95 ffffd7bc 18 21 34 e 27 25 e 10
FIXUPS: 344da 1d e 1b e 1b e d 20 4e 28 9b 4d 22 185a 2c 2f 2b 38 e8 1d
FIXUPS: 36144 17 3a 1e a 23 bb 1d 59 22 23 1b a 23 50 d3 1a 34 2f 1d 34
FIXUPS: 365c8 2f 116 2f ffffeecd 14 18b 13 1a 19 24 2d a9 11 2a 26 1a 8
FIXUPS: 3599b 85 40 2c 4e 2c ea 2c 9d 35 34 2c 39 37 2c ba 40 2c 3290 18
FIXUPS: 391d0 18 20 15 17 3d f 13 d 13 27 27 22 22 19 16 1a 1c 19 1d 1f
FIXUPS: 3941e ffffc06c 1f 3d 53 5c 14 26 14 35ac 29 2a 28 26 27 2b 26 27
FIXUPS: 38cf7 25 1d 17 83 3f 21 8 93 f 1b 1b 1e 18 18 18 23 17 4e 139 f
FIXUPS: 39167 1b fffff54a 1d 1d 13 11 11 2b 28 26 27 6e 93 11 e 21 8 2c
FIXUPS: 3897e 26 23 13 33 23 23 24 27 21 24 25 8 22 32 fffff251 7e 3d 1b
FIXUPS: 37ea6 2a 73 3a 29 29 29 bc e5 e5 db 49 c6 f 22 22 1e 1a 1a 1a 25
FIXUPS: 38563 a2 f 3b 1e 1e 1e ffffefaa 2d 2c 2d 2f 2f 2c 2d ae 83 167
FIXUPS: 37a39 66 2a 16 37 10 1f 10 14 1a 39 13 d 20 f e 2c 15 15 59 5d
FIXUPS: 3739c 12 12 12 12 12 12 35 9 23 9 23 9 23 9 23 9 21 12 1f 12 12
FIXUPS: 3757e 12 12 12 12 12 12 12 12 12 fffffb2f 12 12 12 12 12 12 12
FIXUPS: 371df 12 12 12 12 12 12 12 12 12 12 12 12 12 12 12 17 12 d 12 12
FIXUPS: 37366 12 12 fffffb2c 12 12 12 12 12 12 12 12 12 12 35 9 23 9 23
FIXUPS: 37000 23 9 23 9 23 9 23 9 21 12 12 12 12 12 12 366a 2a 14 9 10
FIXUPS: 3a80e 14 e 10 f 15 9 42 60 45 f 1f 16 34 1a 25 ffffc3e7 9 1b 9
FIXUPS: 36e38 12 12 12 12 12 12 3170 30 28 38 35 39 df 1e 31 1e d1 4b 182
FIXUPS: 3a504 25 41 38 1a 24 35 63 48 8 19 14 9 10 10 14 e 10 f fffff073
FIXUPS: 397e1 49 18 c 16 37 2e 20 2f 12 34 22 17e 7e 36 63 10 1e 59 23
FIXUPS: 39d46 15 117 e e aa 8 21 8 2d 50 fffff513 16 14 22 30 d 16 20 12
FIXUPS: 395dc 12 12 d d d d d d d d d d d 1e d 12 5 f 2b 88 20 d 16c4 55
FIXUPS: 3aeff 2b 15 23 43 3d 21 11 31 16 2c 16 1d b 17 19 1e d 22 1b 1f
FIXUPS: 3b192 29 23 ffffe28b 1e 17 17 16 17 1eae 21 8 5 8b 79 6b 5f 8 5
FIXUPS: 3b5ba 8 5 1cc 5d 65 16 60 fffff173 2d 22 ad af 25 13 1b 1d 25 29
FIXUPS: 3acd6 3a 6c 14d3 20 158 99 30 40 8 2b 8 1c 2b 8 2b 8 1a 77 8 aa
FIXUPS: 3c71c 26 19 29 21 f 32 be 96 8 10 ffffe9be 73 8 943 40 95 37 38
FIXUPS: 3be45 3f 1a 8 32 8 17 2c 1e 77 18 20 18 2b 34 8 5c 8 1d 30 8 2d
FIXUPS: 3c176 4b 58 8 26 22da 14 11 18 1e 75 68 1b 1b 1f 14 3f 8 11 11
FIXUPS: 3e733 22 9a 57 16 f 20 23 6c 16 20 b6 30 5 5 50 f fffff537 1b 65
FIXUPS: 3e065 2c 13 f 24 61 3e 1b 3f 1f 1d f 12 30 58 32 3a 98 14 2a 2a
FIXUPS: 3e436 11 14 14 14 14 30 18 fffff79f a 1d a 24 d 11 a 11 a 11 a
FIXUPS: 3dd42 a 11 a 11 a 1a a 2b 1d 43 1f 19 19 31 16 f c5 13 19 fffff796
FIXUPS: 3d77f 20 20 22 58 6a 11 a 11 a 5a 24 21 32 64 1a c 18 13 1f f5
FIXUPS: 3db83 1b a 1b a 40 a 2e a 12 fffff371 2d 13 20 69 17 43 20 59 22
FIXUPS: 3d1b8 37 bf 42 18 59 f6 1b7 1d 1d 12 1b a 1b a 1e a 1e a 1e a 20
FIXUPS: 3cc6d 1b 1b b 11 11 5b 21 2a 16 11 11 16 37 13 21 16 2f 13 2f 13
FIXUPS: 3ceda 14 d 14 d 11 12 10 11 11 4c 271a b5 3f e 1f 18 ffffd15a d
FIXUPS: 3c984 d d d d d d d 39 2c 13 14 14 2f 2d 13 11 2b 36 1d 50 2f 11
FIXUPS: 3cc5c 24c6 11 56 15 1a 43 17 3b 25 1f 17 43 68 15 1b 31 12 15 126
FIXUPS: 3f512 12 6 d 6 40 33 26 11 4a 53 25 1e 24a5 8b 1d 44 c 1b e 11
FIXUPS: 41cc7 c c 56 66 21 27 27 27 27 69 13 b ffffcce1 97 e0 ef 108 26
FIXUPS: 3ef64 44 7d 5b 3d 25e2 1a 15 15 12 c c 11 11 24 e 3b 13 b e 36
FIXUPS: 4183d 14 38 32 e 19 70 4e 34 1a 17 38 32 23 14 71 fffff103 a5 11
FIXUPS: 40cde 8a 11 e 3f 63 58 37 66 88 176 3f 1d 27 ac 16 86 7a f0 4b
FIXUPS: 414bf 27 20 1d 17 46 e2 c 11 ffffe242 61 48 122 93 57 283 d1 45
FIXUPS: 3ff77 e4 133 51 91 dc 73 44 3e 16 26 173 cc b8 36 ee 1c 11d 32
FIXUPS: 40a57 ae 8e 71 2129 f 31 14 2f 23 23 23 23 23 23 23 23 23 23 23
FIXUPS: 42f54 23 23 20 20 20 20 1d 16 1e 18 93 b 24 25 ffffc746 2c9b 2c
FIXUPS: 42619 2d 23 5b 42 ad 7b 92 3a 33 58 5 b 3d 30 b1 5a e 38 7 11 62
FIXUPS: 42c1a 11 11 11 44 36 16 1f 1320 10 29 24 27 29 12 2a 12 2a 21 8
FIXUPS: 4416f a c 8 1e 1e 5 41 28 8 1b ffffdcfd 39 17 cf 7f fd 9d 193 dd
FIXUPS: 43797 2d 1d 15 9 2f 4c 18 7 36 1f 24 5 29 7 131 c 1f 46 32 3c 16
FIXUPS: 43d0d 8d d 19 eb 1e f4 11 26 12 fffff32f 18 12 19 13 13 1a 10 19
FIXUPS: 433ed 12 1d f 15 1d f 15 11 15 1c 16 2b 2b c7 1f 65 20 3a 25 18
FIXUPS: 4373e 2d 2512 d d d d d d d d d d d d d d d d d ffffd4d3 15 c 13
FIXUPS: 4326d 15 c 15 8 11 3c f 15 8 22ad 17 3c 98 5 38 61 2e 26f 2e 12
FIXUPS: 45a49 11 10 5 8a 19 5d 45 16 12 12 d d d d d d d d d d ffffeaf1
FIXUPS: 44781 5c da 1d 71 9 f 9 f 9 f 9 3af dd 31 1d 19 78 11 11 106 14
FIXUPS: 4508c 4b 141 3e 3e 16b 3e 3e 38 1d88 db 136 30 3d b0 2b eb 26 bc
FIXUPS: 47772 ffffe67d 1f 49 a6 20 1c 42 1c 16 37 ffffe2b6 5e 57 8a 2f
FIXUPS: 4451f 48 15d 14 62 1f 1d8f 1d 19 11 27 1f 14d 52 2c 105 26 1d 1d
FIXUPS: 46963 f1 ad 18 17 37 c7 3b 43 92 104 4d 10d 2a 34 a5 53 9a 40 1248
FIXUPS: 48460 3e 53 3e 2b 3e 3a 48 1b 52 2b c 22 17 23 1e 2f 12 e 3e a
FIXUPS: 487fc 15 11 18 ffffd968 e 23 162 6b f 1b05 2c 12 27 1e 31 1d 2f
FIXUPS: 47fdf 22 26 26 18 40 21 27 27 31 12 13 28 28 24 f 1f 41 64 e 2e
FIXUPS: 48343 74 1f fffff44d 22 16 c6 b 1a 12 20 140 32 2d 1b 22 53 1b
FIXUPS: 47be4 3b 2d 7f d 22 20 d 2b 2d 3f 22 28 1f 26 11 1f
